
kernel/kernel:     file format elf64-littleriscv


Disassembly of section .text:

0000000080000000 <_entry>:
    80000000:	0003a117          	auipc	sp,0x3a
    80000004:	02010113          	add	sp,sp,32 # 8003a020 <stack0>
    80000008:	6505                	lui	a0,0x1
    8000000a:	f14025f3          	csrr	a1,mhartid
    8000000e:	0585                	add	a1,a1,1
    80000010:	02b50533          	mul	a0,a0,a1
    80000014:	912a                	add	sp,sp,a0
    80000016:	201050ef          	jal	80005a16 <start>

000000008000001a <spin>:
    8000001a:	a001                	j	8000001a <spin>

000000008000001c <kfree>:
/* which normally should have been returned by a */
/* call to kalloc().  (The exception is when */
/* initializing the allocator; see kinit above.) */
void
kfree(void *pa)
{
    8000001c:	1101                	add	sp,sp,-32
    8000001e:	ec06                	sd	ra,24(sp)
    80000020:	e822                	sd	s0,16(sp)
    80000022:	e426                	sd	s1,8(sp)
    80000024:	e04a                	sd	s2,0(sp)
    80000026:	1000                	add	s0,sp,32
  struct run *r;
  /* Begin CMPT 332 group14 change Fall 2023 */
  int index;

  index = RCIND((uint64)pa);
    80000028:	800007b7          	lui	a5,0x80000
    8000002c:	97aa                	add	a5,a5,a0
    8000002e:	83b1                	srl	a5,a5,0xc
    80000030:	0007849b          	sext.w	s1,a5
  /* End CMPT 332 group14 change Fall 2023 */

  if(((uint64)pa % PGSIZE) != 0 || (char*)pa < end || (uint64)pa >= PHYSTOP)
    80000034:	03451793          	sll	a5,a0,0x34
    80000038:	e3ad                	bnez	a5,8000009a <kfree+0x7e>
    8000003a:	892a                	mv	s2,a0
    8000003c:	00042797          	auipc	a5,0x42
    80000040:	0e478793          	add	a5,a5,228 # 80042120 <end>
    80000044:	04f56b63          	bltu	a0,a5,8000009a <kfree+0x7e>
    80000048:	47c5                	li	a5,17
    8000004a:	07ee                	sll	a5,a5,0x1b
    8000004c:	04f57763          	bgeu	a0,a5,8000009a <kfree+0x7e>
    panic("kfree");

  acquire(&kmem.lock);
    80000050:	00009517          	auipc	a0,0x9
    80000054:	a5050513          	add	a0,a0,-1456 # 80008aa0 <kmem>
    80000058:	00006097          	auipc	ra,0x6
    8000005c:	3a6080e7          	jalr	934(ra) # 800063fe <acquire>
  kmem.refcount[index]--;
    80000060:	00848793          	add	a5,s1,8
    80000064:	078a                	sll	a5,a5,0x2
    80000066:	00009717          	auipc	a4,0x9
    8000006a:	a3a70713          	add	a4,a4,-1478 # 80008aa0 <kmem>
    8000006e:	97ba                	add	a5,a5,a4
    80000070:	4398                	lw	a4,0(a5)
    80000072:	377d                	addw	a4,a4,-1
    80000074:	0007069b          	sext.w	a3,a4
    80000078:	c398                	sw	a4,0(a5)
  /* Begin CMPT 332 group14 change Fall 2023 */
  if ((kmem.refcount[index] < 1)) {
    8000007a:	02d05863          	blez	a3,800000aa <kfree+0x8e>
    kmem.freelist = r; 

    kmem.freecount++;
  }
  /* End CMPT 332 group14 change Fall 2023 */
  release(&kmem.lock);
    8000007e:	00009517          	auipc	a0,0x9
    80000082:	a2250513          	add	a0,a0,-1502 # 80008aa0 <kmem>
    80000086:	00006097          	auipc	ra,0x6
    8000008a:	42c080e7          	jalr	1068(ra) # 800064b2 <release>
}
    8000008e:	60e2                	ld	ra,24(sp)
    80000090:	6442                	ld	s0,16(sp)
    80000092:	64a2                	ld	s1,8(sp)
    80000094:	6902                	ld	s2,0(sp)
    80000096:	6105                	add	sp,sp,32
    80000098:	8082                	ret
    panic("kfree");
    8000009a:	00008517          	auipc	a0,0x8
    8000009e:	f7650513          	add	a0,a0,-138 # 80008010 <etext+0x10>
    800000a2:	00006097          	auipc	ra,0x6
    800000a6:	e24080e7          	jalr	-476(ra) # 80005ec6 <panic>
    memset(pa, 1, PGSIZE);
    800000aa:	6605                	lui	a2,0x1
    800000ac:	4585                	li	a1,1
    800000ae:	854a                	mv	a0,s2
    800000b0:	00000097          	auipc	ra,0x0
    800000b4:	258080e7          	jalr	600(ra) # 80000308 <memset>
    r->next = kmem.freelist;
    800000b8:	00009797          	auipc	a5,0x9
    800000bc:	9e878793          	add	a5,a5,-1560 # 80008aa0 <kmem>
    800000c0:	6f98                	ld	a4,24(a5)
    800000c2:	00e93023          	sd	a4,0(s2)
    kmem.freelist = r; 
    800000c6:	0127bc23          	sd	s2,24(a5)
    kmem.freecount++;
    800000ca:	00029717          	auipc	a4,0x29
    800000ce:	9d670713          	add	a4,a4,-1578 # 80028aa0 <kmem+0x20000>
    800000d2:	531c                	lw	a5,32(a4)
    800000d4:	2785                	addw	a5,a5,1
    800000d6:	d31c                	sw	a5,32(a4)
    800000d8:	b75d                	j	8000007e <kfree+0x62>

00000000800000da <freerange>:
{
    800000da:	7139                	add	sp,sp,-64
    800000dc:	fc06                	sd	ra,56(sp)
    800000de:	f822                	sd	s0,48(sp)
    800000e0:	f426                	sd	s1,40(sp)
    800000e2:	f04a                	sd	s2,32(sp)
    800000e4:	ec4e                	sd	s3,24(sp)
    800000e6:	e852                	sd	s4,16(sp)
    800000e8:	e456                	sd	s5,8(sp)
    800000ea:	e05a                	sd	s6,0(sp)
    800000ec:	0080                	add	s0,sp,64
  p = (char*)PGROUNDUP((uint64)pa_start);
    800000ee:	6785                	lui	a5,0x1
    800000f0:	fff78713          	add	a4,a5,-1 # fff <_entry-0x7ffff001>
    800000f4:	00e504b3          	add	s1,a0,a4
    800000f8:	777d                	lui	a4,0xfffff
    800000fa:	8cf9                	and	s1,s1,a4
  for(; p + PGSIZE <= (char*)pa_end; p += PGSIZE){
    800000fc:	94be                	add	s1,s1,a5
    800000fe:	0295ef63          	bltu	a1,s1,8000013c <freerange+0x62>
    80000102:	89ae                	mv	s3,a1
    kmem.refcount[index] = 0;
    80000104:	00009b17          	auipc	s6,0x9
    80000108:	99cb0b13          	add	s6,s6,-1636 # 80008aa0 <kmem>
    index = RCIND((uint64)p);
    8000010c:	fff80937          	lui	s2,0xfff80
    80000110:	197d                	add	s2,s2,-1 # fffffffffff7ffff <end+0xffffffff7ff3dedf>
    80000112:	0932                	sll	s2,s2,0xc
    kfree(p);
    80000114:	7afd                	lui	s5,0xfffff
  for(; p + PGSIZE <= (char*)pa_end; p += PGSIZE){
    80000116:	6a05                	lui	s4,0x1
    index = RCIND((uint64)p);
    80000118:	012487b3          	add	a5,s1,s2
    8000011c:	83b1                	srl	a5,a5,0xc
    kmem.refcount[index] = 0;
    8000011e:	2781                	sext.w	a5,a5
    80000120:	07a1                	add	a5,a5,8
    80000122:	078a                	sll	a5,a5,0x2
    80000124:	97da                	add	a5,a5,s6
    80000126:	0007a023          	sw	zero,0(a5)
    kfree(p);
    8000012a:	01548533          	add	a0,s1,s5
    8000012e:	00000097          	auipc	ra,0x0
    80000132:	eee080e7          	jalr	-274(ra) # 8000001c <kfree>
  for(; p + PGSIZE <= (char*)pa_end; p += PGSIZE){
    80000136:	94d2                	add	s1,s1,s4
    80000138:	fe99f0e3          	bgeu	s3,s1,80000118 <freerange+0x3e>
}
    8000013c:	70e2                	ld	ra,56(sp)
    8000013e:	7442                	ld	s0,48(sp)
    80000140:	74a2                	ld	s1,40(sp)
    80000142:	7902                	ld	s2,32(sp)
    80000144:	69e2                	ld	s3,24(sp)
    80000146:	6a42                	ld	s4,16(sp)
    80000148:	6aa2                	ld	s5,8(sp)
    8000014a:	6b02                	ld	s6,0(sp)
    8000014c:	6121                	add	sp,sp,64
    8000014e:	8082                	ret

0000000080000150 <kinit>:
{
    80000150:	1141                	add	sp,sp,-16
    80000152:	e406                	sd	ra,8(sp)
    80000154:	e022                	sd	s0,0(sp)
    80000156:	0800                	add	s0,sp,16
  kmem.freecount = 0; /* don't need lock here */
    80000158:	00029797          	auipc	a5,0x29
    8000015c:	9607a423          	sw	zero,-1688(a5) # 80028ac0 <kmem+0x20020>
  initlock(&kmem.lock, "kmem");
    80000160:	00008597          	auipc	a1,0x8
    80000164:	eb858593          	add	a1,a1,-328 # 80008018 <etext+0x18>
    80000168:	00009517          	auipc	a0,0x9
    8000016c:	93850513          	add	a0,a0,-1736 # 80008aa0 <kmem>
    80000170:	00006097          	auipc	ra,0x6
    80000174:	1fe080e7          	jalr	510(ra) # 8000636e <initlock>
  freerange(end, (void*)PHYSTOP);
    80000178:	45c5                	li	a1,17
    8000017a:	05ee                	sll	a1,a1,0x1b
    8000017c:	00042517          	auipc	a0,0x42
    80000180:	fa450513          	add	a0,a0,-92 # 80042120 <end>
    80000184:	00000097          	auipc	ra,0x0
    80000188:	f56080e7          	jalr	-170(ra) # 800000da <freerange>
}
    8000018c:	60a2                	ld	ra,8(sp)
    8000018e:	6402                	ld	s0,0(sp)
    80000190:	0141                	add	sp,sp,16
    80000192:	8082                	ret

0000000080000194 <kalloc>:
/* Allocate one 4096-byte page of physical memory. */
/* Returns a pointer that the kernel can use. */
/* Returns 0 if the memory cannot be allocated. */
void *
kalloc(void)
{
    80000194:	1101                	add	sp,sp,-32
    80000196:	ec06                	sd	ra,24(sp)
    80000198:	e822                	sd	s0,16(sp)
    8000019a:	e426                	sd	s1,8(sp)
    8000019c:	1000                	add	s0,sp,32
  struct run *r;
  /* Begin CMPT 332 group14 change Fall 2023 */
  int index;
  /* End CMPT 332 group14 change Fall 2023 */

  acquire(&kmem.lock);
    8000019e:	00009517          	auipc	a0,0x9
    800001a2:	90250513          	add	a0,a0,-1790 # 80008aa0 <kmem>
    800001a6:	00006097          	auipc	ra,0x6
    800001aa:	258080e7          	jalr	600(ra) # 800063fe <acquire>
  r = kmem.freelist;
    800001ae:	00009497          	auipc	s1,0x9
    800001b2:	90a4b483          	ld	s1,-1782(s1) # 80008ab8 <kmem+0x18>
  /* Begin CMPT 332 group14 change Fall 2023 */
  index = RCIND((uint64)r);
    800001b6:	800007b7          	lui	a5,0x80000
    800001ba:	97a6                	add	a5,a5,s1
    800001bc:	83b1                	srl	a5,a5,0xc
    800001be:	2781                	sext.w	a5,a5
  if(r)
    800001c0:	c4a1                	beqz	s1,80000208 <kalloc+0x74>
    kmem.freelist = r->next;
    800001c2:	6098                	ld	a4,0(s1)
    800001c4:	00009517          	auipc	a0,0x9
    800001c8:	8dc50513          	add	a0,a0,-1828 # 80008aa0 <kmem>
    800001cc:	ed18                	sd	a4,24(a0)
  kmem.refcount[index] = 1;
    800001ce:	07a1                	add	a5,a5,8 # ffffffff80000008 <end+0xfffffffefffbdee8>
    800001d0:	078a                	sll	a5,a5,0x2
    800001d2:	97aa                	add	a5,a5,a0
    800001d4:	4705                	li	a4,1
    800001d6:	c398                	sw	a4,0(a5)

  kmem.freecount--;
    800001d8:	00029717          	auipc	a4,0x29
    800001dc:	8c870713          	add	a4,a4,-1848 # 80028aa0 <kmem+0x20000>
    800001e0:	531c                	lw	a5,32(a4)
    800001e2:	37fd                	addw	a5,a5,-1
    800001e4:	d31c                	sw	a5,32(a4)
  /* End CMPT 332 group14 change Fall 2023 */
  release(&kmem.lock);
    800001e6:	00006097          	auipc	ra,0x6
    800001ea:	2cc080e7          	jalr	716(ra) # 800064b2 <release>

  if(r)
    memset((char*)r, 5, PGSIZE); /* fill with junk */
    800001ee:	6605                	lui	a2,0x1
    800001f0:	4595                	li	a1,5
    800001f2:	8526                	mv	a0,s1
    800001f4:	00000097          	auipc	ra,0x0
    800001f8:	114080e7          	jalr	276(ra) # 80000308 <memset>
  return (void*)r;
}
    800001fc:	8526                	mv	a0,s1
    800001fe:	60e2                	ld	ra,24(sp)
    80000200:	6442                	ld	s0,16(sp)
    80000202:	64a2                	ld	s1,8(sp)
    80000204:	6105                	add	sp,sp,32
    80000206:	8082                	ret
  kmem.refcount[index] = 1;
    80000208:	00009517          	auipc	a0,0x9
    8000020c:	89850513          	add	a0,a0,-1896 # 80008aa0 <kmem>
    80000210:	07a1                	add	a5,a5,8
    80000212:	078a                	sll	a5,a5,0x2
    80000214:	97aa                	add	a5,a5,a0
    80000216:	4705                	li	a4,1
    80000218:	c398                	sw	a4,0(a5)
  kmem.freecount--;
    8000021a:	00029717          	auipc	a4,0x29
    8000021e:	88670713          	add	a4,a4,-1914 # 80028aa0 <kmem+0x20000>
    80000222:	531c                	lw	a5,32(a4)
    80000224:	37fd                	addw	a5,a5,-1
    80000226:	d31c                	sw	a5,32(a4)
  release(&kmem.lock);
    80000228:	00006097          	auipc	ra,0x6
    8000022c:	28a080e7          	jalr	650(ra) # 800064b2 <release>
  if(r)
    80000230:	b7f1                	j	800001fc <kalloc+0x68>

0000000080000232 <nfree>:

/* Begin CMPT 332 group14 change Fall 2023 */
int
nfree(void)
{
    80000232:	1141                	add	sp,sp,-16
    80000234:	e422                	sd	s0,8(sp)
    80000236:	0800                	add	s0,sp,16
  return kmem.freecount;
}
    80000238:	00029517          	auipc	a0,0x29
    8000023c:	88852503          	lw	a0,-1912(a0) # 80028ac0 <kmem+0x20020>
    80000240:	6422                	ld	s0,8(sp)
    80000242:	0141                	add	sp,sp,16
    80000244:	8082                	ret

0000000080000246 <ref_inc>:

void
ref_inc(void *p)
{
    80000246:	1101                	add	sp,sp,-32
    80000248:	ec06                	sd	ra,24(sp)
    8000024a:	e822                	sd	s0,16(sp)
    8000024c:	e426                	sd	s1,8(sp)
    8000024e:	1000                	add	s0,sp,32
  int index;
  index = RCIND((uint64)p);
    80000250:	800007b7          	lui	a5,0x80000
    80000254:	00f504b3          	add	s1,a0,a5
    80000258:	80b1                	srl	s1,s1,0xc
    8000025a:	2481                	sext.w	s1,s1
  acquire(&kmem.lock);
    8000025c:	00009517          	auipc	a0,0x9
    80000260:	84450513          	add	a0,a0,-1980 # 80008aa0 <kmem>
    80000264:	00006097          	auipc	ra,0x6
    80000268:	19a080e7          	jalr	410(ra) # 800063fe <acquire>
  kmem.refcount[index]++;
    8000026c:	00009517          	auipc	a0,0x9
    80000270:	83450513          	add	a0,a0,-1996 # 80008aa0 <kmem>
    80000274:	00848793          	add	a5,s1,8
    80000278:	078a                	sll	a5,a5,0x2
    8000027a:	97aa                	add	a5,a5,a0
    8000027c:	4398                	lw	a4,0(a5)
    8000027e:	2705                	addw	a4,a4,1
    80000280:	c398                	sw	a4,0(a5)
  release(&kmem.lock);
    80000282:	00006097          	auipc	ra,0x6
    80000286:	230080e7          	jalr	560(ra) # 800064b2 <release>
}
    8000028a:	60e2                	ld	ra,24(sp)
    8000028c:	6442                	ld	s0,16(sp)
    8000028e:	64a2                	ld	s1,8(sp)
    80000290:	6105                	add	sp,sp,32
    80000292:	8082                	ret

0000000080000294 <ref_dec>:

void
ref_dec(void *p)
{
    80000294:	1101                	add	sp,sp,-32
    80000296:	ec06                	sd	ra,24(sp)
    80000298:	e822                	sd	s0,16(sp)
    8000029a:	e426                	sd	s1,8(sp)
    8000029c:	1000                	add	s0,sp,32
  int index;
  index = RCIND((uint64)p);
    8000029e:	800007b7          	lui	a5,0x80000
    800002a2:	00f504b3          	add	s1,a0,a5
    800002a6:	80b1                	srl	s1,s1,0xc
    800002a8:	2481                	sext.w	s1,s1
  acquire(&kmem.lock);
    800002aa:	00008517          	auipc	a0,0x8
    800002ae:	7f650513          	add	a0,a0,2038 # 80008aa0 <kmem>
    800002b2:	00006097          	auipc	ra,0x6
    800002b6:	14c080e7          	jalr	332(ra) # 800063fe <acquire>
  kmem.refcount[index]--;
    800002ba:	00008517          	auipc	a0,0x8
    800002be:	7e650513          	add	a0,a0,2022 # 80008aa0 <kmem>
    800002c2:	00848793          	add	a5,s1,8
    800002c6:	078a                	sll	a5,a5,0x2
    800002c8:	97aa                	add	a5,a5,a0
    800002ca:	4398                	lw	a4,0(a5)
    800002cc:	377d                	addw	a4,a4,-1
    800002ce:	c398                	sw	a4,0(a5)
  release(&kmem.lock);
    800002d0:	00006097          	auipc	ra,0x6
    800002d4:	1e2080e7          	jalr	482(ra) # 800064b2 <release>
}
    800002d8:	60e2                	ld	ra,24(sp)
    800002da:	6442                	ld	s0,16(sp)
    800002dc:	64a2                	ld	s1,8(sp)
    800002de:	6105                	add	sp,sp,32
    800002e0:	8082                	ret

00000000800002e2 <ref_cnt>:

int
ref_cnt(void *p)
{
    800002e2:	1141                	add	sp,sp,-16
    800002e4:	e422                	sd	s0,8(sp)
    800002e6:	0800                	add	s0,sp,16
  int index;
  index = RCIND((uint64)p);
    800002e8:	800007b7          	lui	a5,0x80000
    800002ec:	97aa                	add	a5,a5,a0
    800002ee:	83b1                	srl	a5,a5,0xc
  return kmem.refcount[index];
    800002f0:	2781                	sext.w	a5,a5
    800002f2:	07a1                	add	a5,a5,8 # ffffffff80000008 <end+0xfffffffefffbdee8>
    800002f4:	078a                	sll	a5,a5,0x2
    800002f6:	00008717          	auipc	a4,0x8
    800002fa:	7aa70713          	add	a4,a4,1962 # 80008aa0 <kmem>
    800002fe:	97ba                	add	a5,a5,a4
}
    80000300:	4388                	lw	a0,0(a5)
    80000302:	6422                	ld	s0,8(sp)
    80000304:	0141                	add	sp,sp,16
    80000306:	8082                	ret

0000000080000308 <memset>:
#include "types.h"

void*
memset(void *dst, int c, uint n)
{
    80000308:	1141                	add	sp,sp,-16
    8000030a:	e422                	sd	s0,8(sp)
    8000030c:	0800                	add	s0,sp,16
  char *cdst = (char *) dst;
  int i;
  for(i = 0; i < n; i++){
    8000030e:	ca19                	beqz	a2,80000324 <memset+0x1c>
    80000310:	87aa                	mv	a5,a0
    80000312:	1602                	sll	a2,a2,0x20
    80000314:	9201                	srl	a2,a2,0x20
    80000316:	00a60733          	add	a4,a2,a0
    cdst[i] = c;
    8000031a:	00b78023          	sb	a1,0(a5)
  for(i = 0; i < n; i++){
    8000031e:	0785                	add	a5,a5,1
    80000320:	fee79de3          	bne	a5,a4,8000031a <memset+0x12>
  }
  return dst;
}
    80000324:	6422                	ld	s0,8(sp)
    80000326:	0141                	add	sp,sp,16
    80000328:	8082                	ret

000000008000032a <memcmp>:

int
memcmp(const void *v1, const void *v2, uint n)
{
    8000032a:	1141                	add	sp,sp,-16
    8000032c:	e422                	sd	s0,8(sp)
    8000032e:	0800                	add	s0,sp,16
  const uchar *s1, *s2;

  s1 = v1;
  s2 = v2;
  while(n-- > 0){
    80000330:	ca05                	beqz	a2,80000360 <memcmp+0x36>
    80000332:	fff6069b          	addw	a3,a2,-1 # fff <_entry-0x7ffff001>
    80000336:	1682                	sll	a3,a3,0x20
    80000338:	9281                	srl	a3,a3,0x20
    8000033a:	0685                	add	a3,a3,1
    8000033c:	96aa                	add	a3,a3,a0
    if(*s1 != *s2)
    8000033e:	00054783          	lbu	a5,0(a0)
    80000342:	0005c703          	lbu	a4,0(a1)
    80000346:	00e79863          	bne	a5,a4,80000356 <memcmp+0x2c>
      return *s1 - *s2;
    s1++, s2++;
    8000034a:	0505                	add	a0,a0,1
    8000034c:	0585                	add	a1,a1,1
  while(n-- > 0){
    8000034e:	fed518e3          	bne	a0,a3,8000033e <memcmp+0x14>
  }

  return 0;
    80000352:	4501                	li	a0,0
    80000354:	a019                	j	8000035a <memcmp+0x30>
      return *s1 - *s2;
    80000356:	40e7853b          	subw	a0,a5,a4
}
    8000035a:	6422                	ld	s0,8(sp)
    8000035c:	0141                	add	sp,sp,16
    8000035e:	8082                	ret
  return 0;
    80000360:	4501                	li	a0,0
    80000362:	bfe5                	j	8000035a <memcmp+0x30>

0000000080000364 <memmove>:

void*
memmove(void *dst, const void *src, uint n)
{
    80000364:	1141                	add	sp,sp,-16
    80000366:	e422                	sd	s0,8(sp)
    80000368:	0800                	add	s0,sp,16
  const char *s;
  char *d;

  if(n == 0)
    8000036a:	c205                	beqz	a2,8000038a <memmove+0x26>
    return dst;
  
  s = src;
  d = dst;
  if(s < d && s + n > d){
    8000036c:	02a5e263          	bltu	a1,a0,80000390 <memmove+0x2c>
    s += n;
    d += n;
    while(n-- > 0)
      *--d = *--s;
  } else
    while(n-- > 0)
    80000370:	1602                	sll	a2,a2,0x20
    80000372:	9201                	srl	a2,a2,0x20
    80000374:	00c587b3          	add	a5,a1,a2
{
    80000378:	872a                	mv	a4,a0
      *d++ = *s++;
    8000037a:	0585                	add	a1,a1,1
    8000037c:	0705                	add	a4,a4,1
    8000037e:	fff5c683          	lbu	a3,-1(a1)
    80000382:	fed70fa3          	sb	a3,-1(a4)
    while(n-- > 0)
    80000386:	fef59ae3          	bne	a1,a5,8000037a <memmove+0x16>

  return dst;
}
    8000038a:	6422                	ld	s0,8(sp)
    8000038c:	0141                	add	sp,sp,16
    8000038e:	8082                	ret
  if(s < d && s + n > d){
    80000390:	02061693          	sll	a3,a2,0x20
    80000394:	9281                	srl	a3,a3,0x20
    80000396:	00d58733          	add	a4,a1,a3
    8000039a:	fce57be3          	bgeu	a0,a4,80000370 <memmove+0xc>
    d += n;
    8000039e:	96aa                	add	a3,a3,a0
    while(n-- > 0)
    800003a0:	fff6079b          	addw	a5,a2,-1
    800003a4:	1782                	sll	a5,a5,0x20
    800003a6:	9381                	srl	a5,a5,0x20
    800003a8:	fff7c793          	not	a5,a5
    800003ac:	97ba                	add	a5,a5,a4
      *--d = *--s;
    800003ae:	177d                	add	a4,a4,-1
    800003b0:	16fd                	add	a3,a3,-1
    800003b2:	00074603          	lbu	a2,0(a4)
    800003b6:	00c68023          	sb	a2,0(a3)
    while(n-- > 0)
    800003ba:	fee79ae3          	bne	a5,a4,800003ae <memmove+0x4a>
    800003be:	b7f1                	j	8000038a <memmove+0x26>

00000000800003c0 <memcpy>:

/* memcpy exists to placate GCC.  Use memmove. */
void*
memcpy(void *dst, const void *src, uint n)
{
    800003c0:	1141                	add	sp,sp,-16
    800003c2:	e406                	sd	ra,8(sp)
    800003c4:	e022                	sd	s0,0(sp)
    800003c6:	0800                	add	s0,sp,16
  return memmove(dst, src, n);
    800003c8:	00000097          	auipc	ra,0x0
    800003cc:	f9c080e7          	jalr	-100(ra) # 80000364 <memmove>
}
    800003d0:	60a2                	ld	ra,8(sp)
    800003d2:	6402                	ld	s0,0(sp)
    800003d4:	0141                	add	sp,sp,16
    800003d6:	8082                	ret

00000000800003d8 <strncmp>:

int
strncmp(const char *p, const char *q, uint n)
{
    800003d8:	1141                	add	sp,sp,-16
    800003da:	e422                	sd	s0,8(sp)
    800003dc:	0800                	add	s0,sp,16
  while(n > 0 && *p && *p == *q)
    800003de:	ce11                	beqz	a2,800003fa <strncmp+0x22>
    800003e0:	00054783          	lbu	a5,0(a0)
    800003e4:	cf89                	beqz	a5,800003fe <strncmp+0x26>
    800003e6:	0005c703          	lbu	a4,0(a1)
    800003ea:	00f71a63          	bne	a4,a5,800003fe <strncmp+0x26>
    n--, p++, q++;
    800003ee:	367d                	addw	a2,a2,-1
    800003f0:	0505                	add	a0,a0,1
    800003f2:	0585                	add	a1,a1,1
  while(n > 0 && *p && *p == *q)
    800003f4:	f675                	bnez	a2,800003e0 <strncmp+0x8>
  if(n == 0)
    return 0;
    800003f6:	4501                	li	a0,0
    800003f8:	a809                	j	8000040a <strncmp+0x32>
    800003fa:	4501                	li	a0,0
    800003fc:	a039                	j	8000040a <strncmp+0x32>
  if(n == 0)
    800003fe:	ca09                	beqz	a2,80000410 <strncmp+0x38>
  return (uchar)*p - (uchar)*q;
    80000400:	00054503          	lbu	a0,0(a0)
    80000404:	0005c783          	lbu	a5,0(a1)
    80000408:	9d1d                	subw	a0,a0,a5
}
    8000040a:	6422                	ld	s0,8(sp)
    8000040c:	0141                	add	sp,sp,16
    8000040e:	8082                	ret
    return 0;
    80000410:	4501                	li	a0,0
    80000412:	bfe5                	j	8000040a <strncmp+0x32>

0000000080000414 <strncpy>:

char*
strncpy(char *s, const char *t, int n)
{
    80000414:	1141                	add	sp,sp,-16
    80000416:	e422                	sd	s0,8(sp)
    80000418:	0800                	add	s0,sp,16
  char *os;

  os = s;
  while(n-- > 0 && (*s++ = *t++) != 0)
    8000041a:	87aa                	mv	a5,a0
    8000041c:	86b2                	mv	a3,a2
    8000041e:	367d                	addw	a2,a2,-1
    80000420:	00d05963          	blez	a3,80000432 <strncpy+0x1e>
    80000424:	0785                	add	a5,a5,1
    80000426:	0005c703          	lbu	a4,0(a1)
    8000042a:	fee78fa3          	sb	a4,-1(a5)
    8000042e:	0585                	add	a1,a1,1
    80000430:	f775                	bnez	a4,8000041c <strncpy+0x8>
    ;
  while(n-- > 0)
    80000432:	873e                	mv	a4,a5
    80000434:	9fb5                	addw	a5,a5,a3
    80000436:	37fd                	addw	a5,a5,-1
    80000438:	00c05963          	blez	a2,8000044a <strncpy+0x36>
    *s++ = 0;
    8000043c:	0705                	add	a4,a4,1
    8000043e:	fe070fa3          	sb	zero,-1(a4)
  while(n-- > 0)
    80000442:	40e786bb          	subw	a3,a5,a4
    80000446:	fed04be3          	bgtz	a3,8000043c <strncpy+0x28>
  return os;
}
    8000044a:	6422                	ld	s0,8(sp)
    8000044c:	0141                	add	sp,sp,16
    8000044e:	8082                	ret

0000000080000450 <safestrcpy>:

/* Like strncpy but guaranteed to NUL-terminate. */
char*
safestrcpy(char *s, const char *t, int n)
{
    80000450:	1141                	add	sp,sp,-16
    80000452:	e422                	sd	s0,8(sp)
    80000454:	0800                	add	s0,sp,16
  char *os;

  os = s;
  if(n <= 0)
    80000456:	02c05363          	blez	a2,8000047c <safestrcpy+0x2c>
    8000045a:	fff6069b          	addw	a3,a2,-1
    8000045e:	1682                	sll	a3,a3,0x20
    80000460:	9281                	srl	a3,a3,0x20
    80000462:	96ae                	add	a3,a3,a1
    80000464:	87aa                	mv	a5,a0
    return os;
  while(--n > 0 && (*s++ = *t++) != 0)
    80000466:	00d58963          	beq	a1,a3,80000478 <safestrcpy+0x28>
    8000046a:	0585                	add	a1,a1,1
    8000046c:	0785                	add	a5,a5,1
    8000046e:	fff5c703          	lbu	a4,-1(a1)
    80000472:	fee78fa3          	sb	a4,-1(a5)
    80000476:	fb65                	bnez	a4,80000466 <safestrcpy+0x16>
    ;
  *s = 0;
    80000478:	00078023          	sb	zero,0(a5)
  return os;
}
    8000047c:	6422                	ld	s0,8(sp)
    8000047e:	0141                	add	sp,sp,16
    80000480:	8082                	ret

0000000080000482 <strlen>:

int
strlen(const char *s)
{
    80000482:	1141                	add	sp,sp,-16
    80000484:	e422                	sd	s0,8(sp)
    80000486:	0800                	add	s0,sp,16
  int n;

  for(n = 0; s[n]; n++)
    80000488:	00054783          	lbu	a5,0(a0)
    8000048c:	cf91                	beqz	a5,800004a8 <strlen+0x26>
    8000048e:	0505                	add	a0,a0,1
    80000490:	87aa                	mv	a5,a0
    80000492:	86be                	mv	a3,a5
    80000494:	0785                	add	a5,a5,1
    80000496:	fff7c703          	lbu	a4,-1(a5)
    8000049a:	ff65                	bnez	a4,80000492 <strlen+0x10>
    8000049c:	40a6853b          	subw	a0,a3,a0
    800004a0:	2505                	addw	a0,a0,1
    ;
  return n;
}
    800004a2:	6422                	ld	s0,8(sp)
    800004a4:	0141                	add	sp,sp,16
    800004a6:	8082                	ret
  for(n = 0; s[n]; n++)
    800004a8:	4501                	li	a0,0
    800004aa:	bfe5                	j	800004a2 <strlen+0x20>

00000000800004ac <main>:
volatile static int started = 0;

/* start() jumps here in supervisor mode on all CPUs. */
void
main()
{
    800004ac:	1141                	add	sp,sp,-16
    800004ae:	e406                	sd	ra,8(sp)
    800004b0:	e022                	sd	s0,0(sp)
    800004b2:	0800                	add	s0,sp,16
  if(cpuid() == 0){
    800004b4:	00001097          	auipc	ra,0x1
    800004b8:	b4c080e7          	jalr	-1204(ra) # 80001000 <cpuid>
    virtio_disk_init(); /* emulated hard disk */
    userinit();      /* first user process */
    __sync_synchronize();
    started = 1;
  } else {
    while(started == 0)
    800004bc:	00008717          	auipc	a4,0x8
    800004c0:	5b470713          	add	a4,a4,1460 # 80008a70 <started>
  if(cpuid() == 0){
    800004c4:	c139                	beqz	a0,8000050a <main+0x5e>
    while(started == 0)
    800004c6:	431c                	lw	a5,0(a4)
    800004c8:	2781                	sext.w	a5,a5
    800004ca:	dff5                	beqz	a5,800004c6 <main+0x1a>
      ;
    __sync_synchronize();
    800004cc:	0ff0000f          	fence
    printf("hart %d starting\n", cpuid());
    800004d0:	00001097          	auipc	ra,0x1
    800004d4:	b30080e7          	jalr	-1232(ra) # 80001000 <cpuid>
    800004d8:	85aa                	mv	a1,a0
    800004da:	00008517          	auipc	a0,0x8
    800004de:	b5e50513          	add	a0,a0,-1186 # 80008038 <etext+0x38>
    800004e2:	00006097          	auipc	ra,0x6
    800004e6:	a2e080e7          	jalr	-1490(ra) # 80005f10 <printf>
    kvminithart();    /* turn on paging */
    800004ea:	00000097          	auipc	ra,0x0
    800004ee:	0d8080e7          	jalr	216(ra) # 800005c2 <kvminithart>
    trapinithart();   /* install kernel trap vector */
    800004f2:	00002097          	auipc	ra,0x2
    800004f6:	806080e7          	jalr	-2042(ra) # 80001cf8 <trapinithart>
    plicinithart();   /* ask PLIC for device interrupts */
    800004fa:	00005097          	auipc	ra,0x5
    800004fe:	ed6080e7          	jalr	-298(ra) # 800053d0 <plicinithart>
  }

  scheduler();        
    80000502:	00001097          	auipc	ra,0x1
    80000506:	02c080e7          	jalr	44(ra) # 8000152e <scheduler>
    consoleinit();
    8000050a:	00006097          	auipc	ra,0x6
    8000050e:	8cc080e7          	jalr	-1844(ra) # 80005dd6 <consoleinit>
    printfinit();
    80000512:	00006097          	auipc	ra,0x6
    80000516:	bde080e7          	jalr	-1058(ra) # 800060f0 <printfinit>
    printf("\n");
    8000051a:	00008517          	auipc	a0,0x8
    8000051e:	b2e50513          	add	a0,a0,-1234 # 80008048 <etext+0x48>
    80000522:	00006097          	auipc	ra,0x6
    80000526:	9ee080e7          	jalr	-1554(ra) # 80005f10 <printf>
    printf("xv6 kernel is booting\n");
    8000052a:	00008517          	auipc	a0,0x8
    8000052e:	af650513          	add	a0,a0,-1290 # 80008020 <etext+0x20>
    80000532:	00006097          	auipc	ra,0x6
    80000536:	9de080e7          	jalr	-1570(ra) # 80005f10 <printf>
    printf("\n");
    8000053a:	00008517          	auipc	a0,0x8
    8000053e:	b0e50513          	add	a0,a0,-1266 # 80008048 <etext+0x48>
    80000542:	00006097          	auipc	ra,0x6
    80000546:	9ce080e7          	jalr	-1586(ra) # 80005f10 <printf>
    kinit();         /* physical page allocator */
    8000054a:	00000097          	auipc	ra,0x0
    8000054e:	c06080e7          	jalr	-1018(ra) # 80000150 <kinit>
    kvminit();       /* create kernel page table */
    80000552:	00000097          	auipc	ra,0x0
    80000556:	34a080e7          	jalr	842(ra) # 8000089c <kvminit>
    kvminithart();   /* turn on paging */
    8000055a:	00000097          	auipc	ra,0x0
    8000055e:	068080e7          	jalr	104(ra) # 800005c2 <kvminithart>
    procinit();      /* process table */
    80000562:	00001097          	auipc	ra,0x1
    80000566:	9ea080e7          	jalr	-1558(ra) # 80000f4c <procinit>
    trapinit();      /* trap vectors */
    8000056a:	00001097          	auipc	ra,0x1
    8000056e:	766080e7          	jalr	1894(ra) # 80001cd0 <trapinit>
    trapinithart();  /* install kernel trap vector */
    80000572:	00001097          	auipc	ra,0x1
    80000576:	786080e7          	jalr	1926(ra) # 80001cf8 <trapinithart>
    plicinit();      /* set up interrupt controller */
    8000057a:	00005097          	auipc	ra,0x5
    8000057e:	e40080e7          	jalr	-448(ra) # 800053ba <plicinit>
    plicinithart();  /* ask PLIC for device interrupts */
    80000582:	00005097          	auipc	ra,0x5
    80000586:	e4e080e7          	jalr	-434(ra) # 800053d0 <plicinithart>
    binit();         /* buffer cache */
    8000058a:	00002097          	auipc	ra,0x2
    8000058e:	044080e7          	jalr	68(ra) # 800025ce <binit>
    iinit();         /* inode table */
    80000592:	00002097          	auipc	ra,0x2
    80000596:	6e2080e7          	jalr	1762(ra) # 80002c74 <iinit>
    fileinit();      /* file table */
    8000059a:	00003097          	auipc	ra,0x3
    8000059e:	658080e7          	jalr	1624(ra) # 80003bf2 <fileinit>
    virtio_disk_init(); /* emulated hard disk */
    800005a2:	00005097          	auipc	ra,0x5
    800005a6:	f36080e7          	jalr	-202(ra) # 800054d8 <virtio_disk_init>
    userinit();      /* first user process */
    800005aa:	00001097          	auipc	ra,0x1
    800005ae:	d5e080e7          	jalr	-674(ra) # 80001308 <userinit>
    __sync_synchronize();
    800005b2:	0ff0000f          	fence
    started = 1;
    800005b6:	4785                	li	a5,1
    800005b8:	00008717          	auipc	a4,0x8
    800005bc:	4af72c23          	sw	a5,1208(a4) # 80008a70 <started>
    800005c0:	b789                	j	80000502 <main+0x56>

00000000800005c2 <kvminithart>:

/* Switch h/w page table register to the kernel's page table, */
/* and enable paging. */
void
kvminithart()
{
    800005c2:	1141                	add	sp,sp,-16
    800005c4:	e422                	sd	s0,8(sp)
    800005c6:	0800                	add	s0,sp,16
/* flush the TLB. */
static inline void
sfence_vma()
{
  /* the zero, zero means flush all TLB entries. */
  asm volatile("sfence.vma zero, zero");
    800005c8:	12000073          	sfence.vma
  /* wait for any previous writes to the page table memory to finish. */
  sfence_vma();

  w_satp(MAKE_SATP(kernel_pagetable));
    800005cc:	00008797          	auipc	a5,0x8
    800005d0:	4ac7b783          	ld	a5,1196(a5) # 80008a78 <kernel_pagetable>
    800005d4:	83b1                	srl	a5,a5,0xc
    800005d6:	577d                	li	a4,-1
    800005d8:	177e                	sll	a4,a4,0x3f
    800005da:	8fd9                	or	a5,a5,a4
  asm volatile("csrw satp, %0" : : "r" (x));
    800005dc:	18079073          	csrw	satp,a5
  asm volatile("sfence.vma zero, zero");
    800005e0:	12000073          	sfence.vma

  /* flush stale entries from the TLB. */
  sfence_vma();
}
    800005e4:	6422                	ld	s0,8(sp)
    800005e6:	0141                	add	sp,sp,16
    800005e8:	8082                	ret

00000000800005ea <walk>:
/*   21..29 -- 9 bits of level-1 index. */
/*   12..20 -- 9 bits of level-0 index. */
/*    0..11 -- 12 bits of byte offset within the page. */
pte_t *
walk(pagetable_t pagetable, uint64 va, int alloc)
{
    800005ea:	7139                	add	sp,sp,-64
    800005ec:	fc06                	sd	ra,56(sp)
    800005ee:	f822                	sd	s0,48(sp)
    800005f0:	f426                	sd	s1,40(sp)
    800005f2:	f04a                	sd	s2,32(sp)
    800005f4:	ec4e                	sd	s3,24(sp)
    800005f6:	e852                	sd	s4,16(sp)
    800005f8:	e456                	sd	s5,8(sp)
    800005fa:	e05a                	sd	s6,0(sp)
    800005fc:	0080                	add	s0,sp,64
    800005fe:	84aa                	mv	s1,a0
    80000600:	89ae                	mv	s3,a1
    80000602:	8ab2                	mv	s5,a2
  if(va >= MAXVA)
    80000604:	57fd                	li	a5,-1
    80000606:	83e9                	srl	a5,a5,0x1a
    80000608:	4a79                	li	s4,30
    panic("walk");

  for(int level = 2; level > 0; level--) {
    8000060a:	4b31                	li	s6,12
  if(va >= MAXVA)
    8000060c:	04b7f263          	bgeu	a5,a1,80000650 <walk+0x66>
    panic("walk");
    80000610:	00008517          	auipc	a0,0x8
    80000614:	a4050513          	add	a0,a0,-1472 # 80008050 <etext+0x50>
    80000618:	00006097          	auipc	ra,0x6
    8000061c:	8ae080e7          	jalr	-1874(ra) # 80005ec6 <panic>
    pte_t *pte = &pagetable[PX(level, va)];
    if(*pte & PTE_V) {
      pagetable = (pagetable_t)PTE2PA(*pte);
    } else {
      if(!alloc || (pagetable = (pde_t*)kalloc()) == 0)
    80000620:	060a8663          	beqz	s5,8000068c <walk+0xa2>
    80000624:	00000097          	auipc	ra,0x0
    80000628:	b70080e7          	jalr	-1168(ra) # 80000194 <kalloc>
    8000062c:	84aa                	mv	s1,a0
    8000062e:	c529                	beqz	a0,80000678 <walk+0x8e>
        return 0;
      memset(pagetable, 0, PGSIZE);
    80000630:	6605                	lui	a2,0x1
    80000632:	4581                	li	a1,0
    80000634:	00000097          	auipc	ra,0x0
    80000638:	cd4080e7          	jalr	-812(ra) # 80000308 <memset>
      *pte = PA2PTE(pagetable) | PTE_V;
    8000063c:	00c4d793          	srl	a5,s1,0xc
    80000640:	07aa                	sll	a5,a5,0xa
    80000642:	0017e793          	or	a5,a5,1
    80000646:	00f93023          	sd	a5,0(s2)
  for(int level = 2; level > 0; level--) {
    8000064a:	3a5d                	addw	s4,s4,-9 # ff7 <_entry-0x7ffff009>
    8000064c:	036a0063          	beq	s4,s6,8000066c <walk+0x82>
    pte_t *pte = &pagetable[PX(level, va)];
    80000650:	0149d933          	srl	s2,s3,s4
    80000654:	1ff97913          	and	s2,s2,511
    80000658:	090e                	sll	s2,s2,0x3
    8000065a:	9926                	add	s2,s2,s1
    if(*pte & PTE_V) {
    8000065c:	00093483          	ld	s1,0(s2)
    80000660:	0014f793          	and	a5,s1,1
    80000664:	dfd5                	beqz	a5,80000620 <walk+0x36>
      pagetable = (pagetable_t)PTE2PA(*pte);
    80000666:	80a9                	srl	s1,s1,0xa
    80000668:	04b2                	sll	s1,s1,0xc
    8000066a:	b7c5                	j	8000064a <walk+0x60>
    }
  }
  return &pagetable[PX(0, va)];
    8000066c:	00c9d513          	srl	a0,s3,0xc
    80000670:	1ff57513          	and	a0,a0,511
    80000674:	050e                	sll	a0,a0,0x3
    80000676:	9526                	add	a0,a0,s1
}
    80000678:	70e2                	ld	ra,56(sp)
    8000067a:	7442                	ld	s0,48(sp)
    8000067c:	74a2                	ld	s1,40(sp)
    8000067e:	7902                	ld	s2,32(sp)
    80000680:	69e2                	ld	s3,24(sp)
    80000682:	6a42                	ld	s4,16(sp)
    80000684:	6aa2                	ld	s5,8(sp)
    80000686:	6b02                	ld	s6,0(sp)
    80000688:	6121                	add	sp,sp,64
    8000068a:	8082                	ret
        return 0;
    8000068c:	4501                	li	a0,0
    8000068e:	b7ed                	j	80000678 <walk+0x8e>

0000000080000690 <walkaddr>:
walkaddr(pagetable_t pagetable, uint64 va)
{
  pte_t *pte;
  uint64 pa;

  if(va >= MAXVA)
    80000690:	57fd                	li	a5,-1
    80000692:	83e9                	srl	a5,a5,0x1a
    80000694:	00b7f463          	bgeu	a5,a1,8000069c <walkaddr+0xc>
    return 0;
    80000698:	4501                	li	a0,0
    return 0;
  if((*pte & PTE_U) == 0)
    return 0;
  pa = PTE2PA(*pte);
  return pa;
}
    8000069a:	8082                	ret
{
    8000069c:	1141                	add	sp,sp,-16
    8000069e:	e406                	sd	ra,8(sp)
    800006a0:	e022                	sd	s0,0(sp)
    800006a2:	0800                	add	s0,sp,16
  pte = walk(pagetable, va, 0);
    800006a4:	4601                	li	a2,0
    800006a6:	00000097          	auipc	ra,0x0
    800006aa:	f44080e7          	jalr	-188(ra) # 800005ea <walk>
  if(pte == 0)
    800006ae:	c105                	beqz	a0,800006ce <walkaddr+0x3e>
  if((*pte & PTE_V) == 0)
    800006b0:	611c                	ld	a5,0(a0)
  if((*pte & PTE_U) == 0)
    800006b2:	0117f693          	and	a3,a5,17
    800006b6:	4745                	li	a4,17
    return 0;
    800006b8:	4501                	li	a0,0
  if((*pte & PTE_U) == 0)
    800006ba:	00e68663          	beq	a3,a4,800006c6 <walkaddr+0x36>
}
    800006be:	60a2                	ld	ra,8(sp)
    800006c0:	6402                	ld	s0,0(sp)
    800006c2:	0141                	add	sp,sp,16
    800006c4:	8082                	ret
  pa = PTE2PA(*pte);
    800006c6:	83a9                	srl	a5,a5,0xa
    800006c8:	00c79513          	sll	a0,a5,0xc
  return pa;
    800006cc:	bfcd                	j	800006be <walkaddr+0x2e>
    return 0;
    800006ce:	4501                	li	a0,0
    800006d0:	b7fd                	j	800006be <walkaddr+0x2e>

00000000800006d2 <mappages>:
/* va and size MUST be page-aligned. */
/* Returns 0 on success, -1 if walk() couldn't */
/* allocate a needed page-table page. */
int
mappages(pagetable_t pagetable, uint64 va, uint64 size, uint64 pa, int perm)
{
    800006d2:	715d                	add	sp,sp,-80
    800006d4:	e486                	sd	ra,72(sp)
    800006d6:	e0a2                	sd	s0,64(sp)
    800006d8:	fc26                	sd	s1,56(sp)
    800006da:	f84a                	sd	s2,48(sp)
    800006dc:	f44e                	sd	s3,40(sp)
    800006de:	f052                	sd	s4,32(sp)
    800006e0:	ec56                	sd	s5,24(sp)
    800006e2:	e85a                	sd	s6,16(sp)
    800006e4:	e45e                	sd	s7,8(sp)
    800006e6:	0880                	add	s0,sp,80
  uint64 a, last;
  pte_t *pte;

  if((va % PGSIZE) != 0)
    800006e8:	03459793          	sll	a5,a1,0x34
    800006ec:	e7b9                	bnez	a5,8000073a <mappages+0x68>
    800006ee:	8aaa                	mv	s5,a0
    800006f0:	8b3a                	mv	s6,a4
    panic("mappages: va not aligned");

  if((size % PGSIZE) != 0)
    800006f2:	03461793          	sll	a5,a2,0x34
    800006f6:	ebb1                	bnez	a5,8000074a <mappages+0x78>
    panic("mappages: size not aligned");

  if(size == 0)
    800006f8:	c22d                	beqz	a2,8000075a <mappages+0x88>
    panic("mappages: size");
  
  a = va;
  last = va + size - PGSIZE;
    800006fa:	77fd                	lui	a5,0xfffff
    800006fc:	963e                	add	a2,a2,a5
    800006fe:	00b609b3          	add	s3,a2,a1
  a = va;
    80000702:	892e                	mv	s2,a1
    80000704:	40b68a33          	sub	s4,a3,a1
    if(*pte & PTE_V)
      panic("mappages: remap");
    *pte = PA2PTE(pa) | perm | PTE_V;
    if(a == last)
      break;
    a += PGSIZE;
    80000708:	6b85                	lui	s7,0x1
    8000070a:	012a04b3          	add	s1,s4,s2
    if((pte = walk(pagetable, a, 1)) == 0)
    8000070e:	4605                	li	a2,1
    80000710:	85ca                	mv	a1,s2
    80000712:	8556                	mv	a0,s5
    80000714:	00000097          	auipc	ra,0x0
    80000718:	ed6080e7          	jalr	-298(ra) # 800005ea <walk>
    8000071c:	cd39                	beqz	a0,8000077a <mappages+0xa8>
    if(*pte & PTE_V)
    8000071e:	611c                	ld	a5,0(a0)
    80000720:	8b85                	and	a5,a5,1
    80000722:	e7a1                	bnez	a5,8000076a <mappages+0x98>
    *pte = PA2PTE(pa) | perm | PTE_V;
    80000724:	80b1                	srl	s1,s1,0xc
    80000726:	04aa                	sll	s1,s1,0xa
    80000728:	0164e4b3          	or	s1,s1,s6
    8000072c:	0014e493          	or	s1,s1,1
    80000730:	e104                	sd	s1,0(a0)
    if(a == last)
    80000732:	07390063          	beq	s2,s3,80000792 <mappages+0xc0>
    a += PGSIZE;
    80000736:	995e                	add	s2,s2,s7
    if((pte = walk(pagetable, a, 1)) == 0)
    80000738:	bfc9                	j	8000070a <mappages+0x38>
    panic("mappages: va not aligned");
    8000073a:	00008517          	auipc	a0,0x8
    8000073e:	91e50513          	add	a0,a0,-1762 # 80008058 <etext+0x58>
    80000742:	00005097          	auipc	ra,0x5
    80000746:	784080e7          	jalr	1924(ra) # 80005ec6 <panic>
    panic("mappages: size not aligned");
    8000074a:	00008517          	auipc	a0,0x8
    8000074e:	92e50513          	add	a0,a0,-1746 # 80008078 <etext+0x78>
    80000752:	00005097          	auipc	ra,0x5
    80000756:	774080e7          	jalr	1908(ra) # 80005ec6 <panic>
    panic("mappages: size");
    8000075a:	00008517          	auipc	a0,0x8
    8000075e:	93e50513          	add	a0,a0,-1730 # 80008098 <etext+0x98>
    80000762:	00005097          	auipc	ra,0x5
    80000766:	764080e7          	jalr	1892(ra) # 80005ec6 <panic>
      panic("mappages: remap");
    8000076a:	00008517          	auipc	a0,0x8
    8000076e:	93e50513          	add	a0,a0,-1730 # 800080a8 <etext+0xa8>
    80000772:	00005097          	auipc	ra,0x5
    80000776:	754080e7          	jalr	1876(ra) # 80005ec6 <panic>
      return -1;
    8000077a:	557d                	li	a0,-1
    pa += PGSIZE;
  }
  return 0;
}
    8000077c:	60a6                	ld	ra,72(sp)
    8000077e:	6406                	ld	s0,64(sp)
    80000780:	74e2                	ld	s1,56(sp)
    80000782:	7942                	ld	s2,48(sp)
    80000784:	79a2                	ld	s3,40(sp)
    80000786:	7a02                	ld	s4,32(sp)
    80000788:	6ae2                	ld	s5,24(sp)
    8000078a:	6b42                	ld	s6,16(sp)
    8000078c:	6ba2                	ld	s7,8(sp)
    8000078e:	6161                	add	sp,sp,80
    80000790:	8082                	ret
  return 0;
    80000792:	4501                	li	a0,0
    80000794:	b7e5                	j	8000077c <mappages+0xaa>

0000000080000796 <kvmmap>:
{
    80000796:	1141                	add	sp,sp,-16
    80000798:	e406                	sd	ra,8(sp)
    8000079a:	e022                	sd	s0,0(sp)
    8000079c:	0800                	add	s0,sp,16
    8000079e:	87b6                	mv	a5,a3
  if(mappages(kpgtbl, va, sz, pa, perm) != 0)
    800007a0:	86b2                	mv	a3,a2
    800007a2:	863e                	mv	a2,a5
    800007a4:	00000097          	auipc	ra,0x0
    800007a8:	f2e080e7          	jalr	-210(ra) # 800006d2 <mappages>
    800007ac:	e509                	bnez	a0,800007b6 <kvmmap+0x20>
}
    800007ae:	60a2                	ld	ra,8(sp)
    800007b0:	6402                	ld	s0,0(sp)
    800007b2:	0141                	add	sp,sp,16
    800007b4:	8082                	ret
    panic("kvmmap");
    800007b6:	00008517          	auipc	a0,0x8
    800007ba:	90250513          	add	a0,a0,-1790 # 800080b8 <etext+0xb8>
    800007be:	00005097          	auipc	ra,0x5
    800007c2:	708080e7          	jalr	1800(ra) # 80005ec6 <panic>

00000000800007c6 <kvmmake>:
{
    800007c6:	1101                	add	sp,sp,-32
    800007c8:	ec06                	sd	ra,24(sp)
    800007ca:	e822                	sd	s0,16(sp)
    800007cc:	e426                	sd	s1,8(sp)
    800007ce:	e04a                	sd	s2,0(sp)
    800007d0:	1000                	add	s0,sp,32
  kpgtbl = (pagetable_t) kalloc();
    800007d2:	00000097          	auipc	ra,0x0
    800007d6:	9c2080e7          	jalr	-1598(ra) # 80000194 <kalloc>
    800007da:	84aa                	mv	s1,a0
  memset(kpgtbl, 0, PGSIZE);
    800007dc:	6605                	lui	a2,0x1
    800007de:	4581                	li	a1,0
    800007e0:	00000097          	auipc	ra,0x0
    800007e4:	b28080e7          	jalr	-1240(ra) # 80000308 <memset>
  kvmmap(kpgtbl, UART0, UART0, PGSIZE, PTE_R | PTE_W);
    800007e8:	4719                	li	a4,6
    800007ea:	6685                	lui	a3,0x1
    800007ec:	10000637          	lui	a2,0x10000
    800007f0:	100005b7          	lui	a1,0x10000
    800007f4:	8526                	mv	a0,s1
    800007f6:	00000097          	auipc	ra,0x0
    800007fa:	fa0080e7          	jalr	-96(ra) # 80000796 <kvmmap>
  kvmmap(kpgtbl, VIRTIO0, VIRTIO0, PGSIZE, PTE_R | PTE_W);
    800007fe:	4719                	li	a4,6
    80000800:	6685                	lui	a3,0x1
    80000802:	10001637          	lui	a2,0x10001
    80000806:	100015b7          	lui	a1,0x10001
    8000080a:	8526                	mv	a0,s1
    8000080c:	00000097          	auipc	ra,0x0
    80000810:	f8a080e7          	jalr	-118(ra) # 80000796 <kvmmap>
  kvmmap(kpgtbl, PLIC, PLIC, 0x400000, PTE_R | PTE_W);
    80000814:	4719                	li	a4,6
    80000816:	004006b7          	lui	a3,0x400
    8000081a:	0c000637          	lui	a2,0xc000
    8000081e:	0c0005b7          	lui	a1,0xc000
    80000822:	8526                	mv	a0,s1
    80000824:	00000097          	auipc	ra,0x0
    80000828:	f72080e7          	jalr	-142(ra) # 80000796 <kvmmap>
  kvmmap(kpgtbl, KERNBASE, KERNBASE, (uint64)etext-KERNBASE, PTE_R | PTE_X);
    8000082c:	00007917          	auipc	s2,0x7
    80000830:	7d490913          	add	s2,s2,2004 # 80008000 <etext>
    80000834:	4729                	li	a4,10
    80000836:	80007697          	auipc	a3,0x80007
    8000083a:	7ca68693          	add	a3,a3,1994 # 8000 <_entry-0x7fff8000>
    8000083e:	4605                	li	a2,1
    80000840:	067e                	sll	a2,a2,0x1f
    80000842:	85b2                	mv	a1,a2
    80000844:	8526                	mv	a0,s1
    80000846:	00000097          	auipc	ra,0x0
    8000084a:	f50080e7          	jalr	-176(ra) # 80000796 <kvmmap>
  kvmmap(kpgtbl, (uint64)etext, (uint64)etext, PHYSTOP-(uint64)etext, PTE_R | PTE_W);
    8000084e:	4719                	li	a4,6
    80000850:	46c5                	li	a3,17
    80000852:	06ee                	sll	a3,a3,0x1b
    80000854:	412686b3          	sub	a3,a3,s2
    80000858:	864a                	mv	a2,s2
    8000085a:	85ca                	mv	a1,s2
    8000085c:	8526                	mv	a0,s1
    8000085e:	00000097          	auipc	ra,0x0
    80000862:	f38080e7          	jalr	-200(ra) # 80000796 <kvmmap>
  kvmmap(kpgtbl, TRAMPOLINE, (uint64)trampoline, PGSIZE, PTE_R | PTE_X);
    80000866:	4729                	li	a4,10
    80000868:	6685                	lui	a3,0x1
    8000086a:	00006617          	auipc	a2,0x6
    8000086e:	79660613          	add	a2,a2,1942 # 80007000 <_trampoline>
    80000872:	040005b7          	lui	a1,0x4000
    80000876:	15fd                	add	a1,a1,-1 # 3ffffff <_entry-0x7c000001>
    80000878:	05b2                	sll	a1,a1,0xc
    8000087a:	8526                	mv	a0,s1
    8000087c:	00000097          	auipc	ra,0x0
    80000880:	f1a080e7          	jalr	-230(ra) # 80000796 <kvmmap>
  proc_mapstacks(kpgtbl);
    80000884:	8526                	mv	a0,s1
    80000886:	00000097          	auipc	ra,0x0
    8000088a:	630080e7          	jalr	1584(ra) # 80000eb6 <proc_mapstacks>
}
    8000088e:	8526                	mv	a0,s1
    80000890:	60e2                	ld	ra,24(sp)
    80000892:	6442                	ld	s0,16(sp)
    80000894:	64a2                	ld	s1,8(sp)
    80000896:	6902                	ld	s2,0(sp)
    80000898:	6105                	add	sp,sp,32
    8000089a:	8082                	ret

000000008000089c <kvminit>:
{
    8000089c:	1141                	add	sp,sp,-16
    8000089e:	e406                	sd	ra,8(sp)
    800008a0:	e022                	sd	s0,0(sp)
    800008a2:	0800                	add	s0,sp,16
  kernel_pagetable = kvmmake();
    800008a4:	00000097          	auipc	ra,0x0
    800008a8:	f22080e7          	jalr	-222(ra) # 800007c6 <kvmmake>
    800008ac:	00008797          	auipc	a5,0x8
    800008b0:	1ca7b623          	sd	a0,460(a5) # 80008a78 <kernel_pagetable>
}
    800008b4:	60a2                	ld	ra,8(sp)
    800008b6:	6402                	ld	s0,0(sp)
    800008b8:	0141                	add	sp,sp,16
    800008ba:	8082                	ret

00000000800008bc <uvmunmap>:
/* Remove npages of mappings starting from va. va must be */
/* page-aligned. The mappings must exist. */
/* Optionally free the physical memory. */
void
uvmunmap(pagetable_t pagetable, uint64 va, uint64 npages, int do_free)
{
    800008bc:	715d                	add	sp,sp,-80
    800008be:	e486                	sd	ra,72(sp)
    800008c0:	e0a2                	sd	s0,64(sp)
    800008c2:	fc26                	sd	s1,56(sp)
    800008c4:	f84a                	sd	s2,48(sp)
    800008c6:	f44e                	sd	s3,40(sp)
    800008c8:	f052                	sd	s4,32(sp)
    800008ca:	ec56                	sd	s5,24(sp)
    800008cc:	e85a                	sd	s6,16(sp)
    800008ce:	e45e                	sd	s7,8(sp)
    800008d0:	0880                	add	s0,sp,80
  uint64 a;
  pte_t *pte;

  if((va % PGSIZE) != 0)
    800008d2:	03459793          	sll	a5,a1,0x34
    800008d6:	e795                	bnez	a5,80000902 <uvmunmap+0x46>
    800008d8:	8a2a                	mv	s4,a0
    800008da:	892e                	mv	s2,a1
    800008dc:	8ab6                	mv	s5,a3
    panic("uvmunmap: not aligned");

  for(a = va; a < va + npages*PGSIZE; a += PGSIZE){
    800008de:	0632                	sll	a2,a2,0xc
    800008e0:	00b609b3          	add	s3,a2,a1
    if((pte = walk(pagetable, a, 0)) == 0)
      panic("uvmunmap: walk");
    if((*pte & PTE_V) == 0)
      panic("uvmunmap: not mapped");
    if(PTE_FLAGS(*pte) == PTE_V)
    800008e4:	4b85                	li	s7,1
  for(a = va; a < va + npages*PGSIZE; a += PGSIZE){
    800008e6:	6b05                	lui	s6,0x1
    800008e8:	0735e263          	bltu	a1,s3,8000094c <uvmunmap+0x90>
      uint64 pa = PTE2PA(*pte);
      kfree((void*)pa);
    }
    *pte = 0;
  }
}
    800008ec:	60a6                	ld	ra,72(sp)
    800008ee:	6406                	ld	s0,64(sp)
    800008f0:	74e2                	ld	s1,56(sp)
    800008f2:	7942                	ld	s2,48(sp)
    800008f4:	79a2                	ld	s3,40(sp)
    800008f6:	7a02                	ld	s4,32(sp)
    800008f8:	6ae2                	ld	s5,24(sp)
    800008fa:	6b42                	ld	s6,16(sp)
    800008fc:	6ba2                	ld	s7,8(sp)
    800008fe:	6161                	add	sp,sp,80
    80000900:	8082                	ret
    panic("uvmunmap: not aligned");
    80000902:	00007517          	auipc	a0,0x7
    80000906:	7be50513          	add	a0,a0,1982 # 800080c0 <etext+0xc0>
    8000090a:	00005097          	auipc	ra,0x5
    8000090e:	5bc080e7          	jalr	1468(ra) # 80005ec6 <panic>
      panic("uvmunmap: walk");
    80000912:	00007517          	auipc	a0,0x7
    80000916:	7c650513          	add	a0,a0,1990 # 800080d8 <etext+0xd8>
    8000091a:	00005097          	auipc	ra,0x5
    8000091e:	5ac080e7          	jalr	1452(ra) # 80005ec6 <panic>
      panic("uvmunmap: not mapped");
    80000922:	00007517          	auipc	a0,0x7
    80000926:	7c650513          	add	a0,a0,1990 # 800080e8 <etext+0xe8>
    8000092a:	00005097          	auipc	ra,0x5
    8000092e:	59c080e7          	jalr	1436(ra) # 80005ec6 <panic>
      panic("uvmunmap: not a leaf");
    80000932:	00007517          	auipc	a0,0x7
    80000936:	7ce50513          	add	a0,a0,1998 # 80008100 <etext+0x100>
    8000093a:	00005097          	auipc	ra,0x5
    8000093e:	58c080e7          	jalr	1420(ra) # 80005ec6 <panic>
    *pte = 0;
    80000942:	0004b023          	sd	zero,0(s1)
  for(a = va; a < va + npages*PGSIZE; a += PGSIZE){
    80000946:	995a                	add	s2,s2,s6
    80000948:	fb3972e3          	bgeu	s2,s3,800008ec <uvmunmap+0x30>
    if((pte = walk(pagetable, a, 0)) == 0)
    8000094c:	4601                	li	a2,0
    8000094e:	85ca                	mv	a1,s2
    80000950:	8552                	mv	a0,s4
    80000952:	00000097          	auipc	ra,0x0
    80000956:	c98080e7          	jalr	-872(ra) # 800005ea <walk>
    8000095a:	84aa                	mv	s1,a0
    8000095c:	d95d                	beqz	a0,80000912 <uvmunmap+0x56>
    if((*pte & PTE_V) == 0)
    8000095e:	6108                	ld	a0,0(a0)
    80000960:	00157793          	and	a5,a0,1
    80000964:	dfdd                	beqz	a5,80000922 <uvmunmap+0x66>
    if(PTE_FLAGS(*pte) == PTE_V)
    80000966:	3ff57793          	and	a5,a0,1023
    8000096a:	fd7784e3          	beq	a5,s7,80000932 <uvmunmap+0x76>
    if(do_free){
    8000096e:	fc0a8ae3          	beqz	s5,80000942 <uvmunmap+0x86>
      uint64 pa = PTE2PA(*pte);
    80000972:	8129                	srl	a0,a0,0xa
      kfree((void*)pa);
    80000974:	0532                	sll	a0,a0,0xc
    80000976:	fffff097          	auipc	ra,0xfffff
    8000097a:	6a6080e7          	jalr	1702(ra) # 8000001c <kfree>
    8000097e:	b7d1                	j	80000942 <uvmunmap+0x86>

0000000080000980 <uvmcreate>:

/* create an empty user page table. */
/* returns 0 if out of memory. */
pagetable_t
uvmcreate()
{
    80000980:	1101                	add	sp,sp,-32
    80000982:	ec06                	sd	ra,24(sp)
    80000984:	e822                	sd	s0,16(sp)
    80000986:	e426                	sd	s1,8(sp)
    80000988:	1000                	add	s0,sp,32
  pagetable_t pagetable;
  pagetable = (pagetable_t) kalloc();
    8000098a:	00000097          	auipc	ra,0x0
    8000098e:	80a080e7          	jalr	-2038(ra) # 80000194 <kalloc>
    80000992:	84aa                	mv	s1,a0
  if(pagetable == 0)
    80000994:	c519                	beqz	a0,800009a2 <uvmcreate+0x22>
    return 0;
  memset(pagetable, 0, PGSIZE);
    80000996:	6605                	lui	a2,0x1
    80000998:	4581                	li	a1,0
    8000099a:	00000097          	auipc	ra,0x0
    8000099e:	96e080e7          	jalr	-1682(ra) # 80000308 <memset>
  return pagetable;
}
    800009a2:	8526                	mv	a0,s1
    800009a4:	60e2                	ld	ra,24(sp)
    800009a6:	6442                	ld	s0,16(sp)
    800009a8:	64a2                	ld	s1,8(sp)
    800009aa:	6105                	add	sp,sp,32
    800009ac:	8082                	ret

00000000800009ae <uvmfirst>:
/* Load the user initcode into address 0 of pagetable, */
/* for the very first process. */
/* sz must be less than a page. */
void
uvmfirst(pagetable_t pagetable, uchar *src, uint sz)
{
    800009ae:	7179                	add	sp,sp,-48
    800009b0:	f406                	sd	ra,40(sp)
    800009b2:	f022                	sd	s0,32(sp)
    800009b4:	ec26                	sd	s1,24(sp)
    800009b6:	e84a                	sd	s2,16(sp)
    800009b8:	e44e                	sd	s3,8(sp)
    800009ba:	e052                	sd	s4,0(sp)
    800009bc:	1800                	add	s0,sp,48
  char *mem;

  if(sz >= PGSIZE)
    800009be:	6785                	lui	a5,0x1
    800009c0:	04f67863          	bgeu	a2,a5,80000a10 <uvmfirst+0x62>
    800009c4:	8a2a                	mv	s4,a0
    800009c6:	89ae                	mv	s3,a1
    800009c8:	84b2                	mv	s1,a2
    panic("uvmfirst: more than a page");
  mem = kalloc();
    800009ca:	fffff097          	auipc	ra,0xfffff
    800009ce:	7ca080e7          	jalr	1994(ra) # 80000194 <kalloc>
    800009d2:	892a                	mv	s2,a0
  memset(mem, 0, PGSIZE);
    800009d4:	6605                	lui	a2,0x1
    800009d6:	4581                	li	a1,0
    800009d8:	00000097          	auipc	ra,0x0
    800009dc:	930080e7          	jalr	-1744(ra) # 80000308 <memset>
  mappages(pagetable, 0, PGSIZE, (uint64)mem, PTE_W|PTE_R|PTE_X|PTE_U);
    800009e0:	4779                	li	a4,30
    800009e2:	86ca                	mv	a3,s2
    800009e4:	6605                	lui	a2,0x1
    800009e6:	4581                	li	a1,0
    800009e8:	8552                	mv	a0,s4
    800009ea:	00000097          	auipc	ra,0x0
    800009ee:	ce8080e7          	jalr	-792(ra) # 800006d2 <mappages>
  memmove(mem, src, sz);
    800009f2:	8626                	mv	a2,s1
    800009f4:	85ce                	mv	a1,s3
    800009f6:	854a                	mv	a0,s2
    800009f8:	00000097          	auipc	ra,0x0
    800009fc:	96c080e7          	jalr	-1684(ra) # 80000364 <memmove>
}
    80000a00:	70a2                	ld	ra,40(sp)
    80000a02:	7402                	ld	s0,32(sp)
    80000a04:	64e2                	ld	s1,24(sp)
    80000a06:	6942                	ld	s2,16(sp)
    80000a08:	69a2                	ld	s3,8(sp)
    80000a0a:	6a02                	ld	s4,0(sp)
    80000a0c:	6145                	add	sp,sp,48
    80000a0e:	8082                	ret
    panic("uvmfirst: more than a page");
    80000a10:	00007517          	auipc	a0,0x7
    80000a14:	70850513          	add	a0,a0,1800 # 80008118 <etext+0x118>
    80000a18:	00005097          	auipc	ra,0x5
    80000a1c:	4ae080e7          	jalr	1198(ra) # 80005ec6 <panic>

0000000080000a20 <uvmdealloc>:
/* newsz.  oldsz and newsz need not be page-aligned, nor does newsz */
/* need to be less than oldsz.  oldsz can be larger than the actual */
/* process size.  Returns the new process size. */
uint64
uvmdealloc(pagetable_t pagetable, uint64 oldsz, uint64 newsz)
{
    80000a20:	1101                	add	sp,sp,-32
    80000a22:	ec06                	sd	ra,24(sp)
    80000a24:	e822                	sd	s0,16(sp)
    80000a26:	e426                	sd	s1,8(sp)
    80000a28:	1000                	add	s0,sp,32
  if(newsz >= oldsz)
    return oldsz;
    80000a2a:	84ae                	mv	s1,a1
  if(newsz >= oldsz)
    80000a2c:	00b67d63          	bgeu	a2,a1,80000a46 <uvmdealloc+0x26>
    80000a30:	84b2                	mv	s1,a2

  if(PGROUNDUP(newsz) < PGROUNDUP(oldsz)){
    80000a32:	6785                	lui	a5,0x1
    80000a34:	17fd                	add	a5,a5,-1 # fff <_entry-0x7ffff001>
    80000a36:	00f60733          	add	a4,a2,a5
    80000a3a:	76fd                	lui	a3,0xfffff
    80000a3c:	8f75                	and	a4,a4,a3
    80000a3e:	97ae                	add	a5,a5,a1
    80000a40:	8ff5                	and	a5,a5,a3
    80000a42:	00f76863          	bltu	a4,a5,80000a52 <uvmdealloc+0x32>
    int npages = (PGROUNDUP(oldsz) - PGROUNDUP(newsz)) / PGSIZE;
    uvmunmap(pagetable, PGROUNDUP(newsz), npages, 1);
  }

  return newsz;
}
    80000a46:	8526                	mv	a0,s1
    80000a48:	60e2                	ld	ra,24(sp)
    80000a4a:	6442                	ld	s0,16(sp)
    80000a4c:	64a2                	ld	s1,8(sp)
    80000a4e:	6105                	add	sp,sp,32
    80000a50:	8082                	ret
    int npages = (PGROUNDUP(oldsz) - PGROUNDUP(newsz)) / PGSIZE;
    80000a52:	8f99                	sub	a5,a5,a4
    80000a54:	83b1                	srl	a5,a5,0xc
    uvmunmap(pagetable, PGROUNDUP(newsz), npages, 1);
    80000a56:	4685                	li	a3,1
    80000a58:	0007861b          	sext.w	a2,a5
    80000a5c:	85ba                	mv	a1,a4
    80000a5e:	00000097          	auipc	ra,0x0
    80000a62:	e5e080e7          	jalr	-418(ra) # 800008bc <uvmunmap>
    80000a66:	b7c5                	j	80000a46 <uvmdealloc+0x26>

0000000080000a68 <uvmalloc>:
  if(newsz < oldsz)
    80000a68:	0ab66563          	bltu	a2,a1,80000b12 <uvmalloc+0xaa>
{
    80000a6c:	7139                	add	sp,sp,-64
    80000a6e:	fc06                	sd	ra,56(sp)
    80000a70:	f822                	sd	s0,48(sp)
    80000a72:	f426                	sd	s1,40(sp)
    80000a74:	f04a                	sd	s2,32(sp)
    80000a76:	ec4e                	sd	s3,24(sp)
    80000a78:	e852                	sd	s4,16(sp)
    80000a7a:	e456                	sd	s5,8(sp)
    80000a7c:	e05a                	sd	s6,0(sp)
    80000a7e:	0080                	add	s0,sp,64
    80000a80:	8aaa                	mv	s5,a0
    80000a82:	8a32                	mv	s4,a2
  oldsz = PGROUNDUP(oldsz);
    80000a84:	6785                	lui	a5,0x1
    80000a86:	17fd                	add	a5,a5,-1 # fff <_entry-0x7ffff001>
    80000a88:	95be                	add	a1,a1,a5
    80000a8a:	77fd                	lui	a5,0xfffff
    80000a8c:	00f5f9b3          	and	s3,a1,a5
  for(a = oldsz; a < newsz; a += PGSIZE){
    80000a90:	08c9f363          	bgeu	s3,a2,80000b16 <uvmalloc+0xae>
    80000a94:	894e                	mv	s2,s3
    if(mappages(pagetable, a, PGSIZE, (uint64)mem, PTE_R|PTE_U|xperm) != 0){
    80000a96:	0126eb13          	or	s6,a3,18
    mem = kalloc();
    80000a9a:	fffff097          	auipc	ra,0xfffff
    80000a9e:	6fa080e7          	jalr	1786(ra) # 80000194 <kalloc>
    80000aa2:	84aa                	mv	s1,a0
    if(mem == 0){
    80000aa4:	c51d                	beqz	a0,80000ad2 <uvmalloc+0x6a>
    memset(mem, 0, PGSIZE);
    80000aa6:	6605                	lui	a2,0x1
    80000aa8:	4581                	li	a1,0
    80000aaa:	00000097          	auipc	ra,0x0
    80000aae:	85e080e7          	jalr	-1954(ra) # 80000308 <memset>
    if(mappages(pagetable, a, PGSIZE, (uint64)mem, PTE_R|PTE_U|xperm) != 0){
    80000ab2:	875a                	mv	a4,s6
    80000ab4:	86a6                	mv	a3,s1
    80000ab6:	6605                	lui	a2,0x1
    80000ab8:	85ca                	mv	a1,s2
    80000aba:	8556                	mv	a0,s5
    80000abc:	00000097          	auipc	ra,0x0
    80000ac0:	c16080e7          	jalr	-1002(ra) # 800006d2 <mappages>
    80000ac4:	e90d                	bnez	a0,80000af6 <uvmalloc+0x8e>
  for(a = oldsz; a < newsz; a += PGSIZE){
    80000ac6:	6785                	lui	a5,0x1
    80000ac8:	993e                	add	s2,s2,a5
    80000aca:	fd4968e3          	bltu	s2,s4,80000a9a <uvmalloc+0x32>
  return newsz;
    80000ace:	8552                	mv	a0,s4
    80000ad0:	a809                	j	80000ae2 <uvmalloc+0x7a>
      uvmdealloc(pagetable, a, oldsz);
    80000ad2:	864e                	mv	a2,s3
    80000ad4:	85ca                	mv	a1,s2
    80000ad6:	8556                	mv	a0,s5
    80000ad8:	00000097          	auipc	ra,0x0
    80000adc:	f48080e7          	jalr	-184(ra) # 80000a20 <uvmdealloc>
      return 0;
    80000ae0:	4501                	li	a0,0
}
    80000ae2:	70e2                	ld	ra,56(sp)
    80000ae4:	7442                	ld	s0,48(sp)
    80000ae6:	74a2                	ld	s1,40(sp)
    80000ae8:	7902                	ld	s2,32(sp)
    80000aea:	69e2                	ld	s3,24(sp)
    80000aec:	6a42                	ld	s4,16(sp)
    80000aee:	6aa2                	ld	s5,8(sp)
    80000af0:	6b02                	ld	s6,0(sp)
    80000af2:	6121                	add	sp,sp,64
    80000af4:	8082                	ret
      kfree(mem);
    80000af6:	8526                	mv	a0,s1
    80000af8:	fffff097          	auipc	ra,0xfffff
    80000afc:	524080e7          	jalr	1316(ra) # 8000001c <kfree>
      uvmdealloc(pagetable, a, oldsz);
    80000b00:	864e                	mv	a2,s3
    80000b02:	85ca                	mv	a1,s2
    80000b04:	8556                	mv	a0,s5
    80000b06:	00000097          	auipc	ra,0x0
    80000b0a:	f1a080e7          	jalr	-230(ra) # 80000a20 <uvmdealloc>
      return 0;
    80000b0e:	4501                	li	a0,0
    80000b10:	bfc9                	j	80000ae2 <uvmalloc+0x7a>
    return oldsz;
    80000b12:	852e                	mv	a0,a1
}
    80000b14:	8082                	ret
  return newsz;
    80000b16:	8532                	mv	a0,a2
    80000b18:	b7e9                	j	80000ae2 <uvmalloc+0x7a>

0000000080000b1a <freewalk>:

/* Recursively free page-table pages. */
/* All leaf mappings must already have been removed. */
void
freewalk(pagetable_t pagetable)
{
    80000b1a:	7179                	add	sp,sp,-48
    80000b1c:	f406                	sd	ra,40(sp)
    80000b1e:	f022                	sd	s0,32(sp)
    80000b20:	ec26                	sd	s1,24(sp)
    80000b22:	e84a                	sd	s2,16(sp)
    80000b24:	e44e                	sd	s3,8(sp)
    80000b26:	e052                	sd	s4,0(sp)
    80000b28:	1800                	add	s0,sp,48
    80000b2a:	8a2a                	mv	s4,a0
  /* there are 2^9 = 512 PTEs in a page table. */
  for(int i = 0; i < 512; i++){
    80000b2c:	84aa                	mv	s1,a0
    80000b2e:	6905                	lui	s2,0x1
    80000b30:	992a                	add	s2,s2,a0
    pte_t pte = pagetable[i];
    if((pte & PTE_V) && (pte & (PTE_R|PTE_W|PTE_X)) == 0){
    80000b32:	4985                	li	s3,1
    80000b34:	a829                	j	80000b4e <freewalk+0x34>
      /* this PTE points to a lower-level page table. */
      uint64 child = PTE2PA(pte);
    80000b36:	83a9                	srl	a5,a5,0xa
      freewalk((pagetable_t)child);
    80000b38:	00c79513          	sll	a0,a5,0xc
    80000b3c:	00000097          	auipc	ra,0x0
    80000b40:	fde080e7          	jalr	-34(ra) # 80000b1a <freewalk>
      pagetable[i] = 0;
    80000b44:	0004b023          	sd	zero,0(s1)
  for(int i = 0; i < 512; i++){
    80000b48:	04a1                	add	s1,s1,8
    80000b4a:	03248163          	beq	s1,s2,80000b6c <freewalk+0x52>
    pte_t pte = pagetable[i];
    80000b4e:	609c                	ld	a5,0(s1)
    if((pte & PTE_V) && (pte & (PTE_R|PTE_W|PTE_X)) == 0){
    80000b50:	00f7f713          	and	a4,a5,15
    80000b54:	ff3701e3          	beq	a4,s3,80000b36 <freewalk+0x1c>
    } else if(pte & PTE_V){
    80000b58:	8b85                	and	a5,a5,1
    80000b5a:	d7fd                	beqz	a5,80000b48 <freewalk+0x2e>
      panic("freewalk: leaf");
    80000b5c:	00007517          	auipc	a0,0x7
    80000b60:	5dc50513          	add	a0,a0,1500 # 80008138 <etext+0x138>
    80000b64:	00005097          	auipc	ra,0x5
    80000b68:	362080e7          	jalr	866(ra) # 80005ec6 <panic>
    }
  }
  kfree((void*)pagetable);
    80000b6c:	8552                	mv	a0,s4
    80000b6e:	fffff097          	auipc	ra,0xfffff
    80000b72:	4ae080e7          	jalr	1198(ra) # 8000001c <kfree>
}
    80000b76:	70a2                	ld	ra,40(sp)
    80000b78:	7402                	ld	s0,32(sp)
    80000b7a:	64e2                	ld	s1,24(sp)
    80000b7c:	6942                	ld	s2,16(sp)
    80000b7e:	69a2                	ld	s3,8(sp)
    80000b80:	6a02                	ld	s4,0(sp)
    80000b82:	6145                	add	sp,sp,48
    80000b84:	8082                	ret

0000000080000b86 <uvmfree>:

/* Free user memory pages, */
/* then free page-table pages. */
void
uvmfree(pagetable_t pagetable, uint64 sz)
{
    80000b86:	1101                	add	sp,sp,-32
    80000b88:	ec06                	sd	ra,24(sp)
    80000b8a:	e822                	sd	s0,16(sp)
    80000b8c:	e426                	sd	s1,8(sp)
    80000b8e:	1000                	add	s0,sp,32
    80000b90:	84aa                	mv	s1,a0
  if(sz > 0)
    80000b92:	e999                	bnez	a1,80000ba8 <uvmfree+0x22>
    uvmunmap(pagetable, 0, PGROUNDUP(sz)/PGSIZE, 1);
  freewalk(pagetable);
    80000b94:	8526                	mv	a0,s1
    80000b96:	00000097          	auipc	ra,0x0
    80000b9a:	f84080e7          	jalr	-124(ra) # 80000b1a <freewalk>
}
    80000b9e:	60e2                	ld	ra,24(sp)
    80000ba0:	6442                	ld	s0,16(sp)
    80000ba2:	64a2                	ld	s1,8(sp)
    80000ba4:	6105                	add	sp,sp,32
    80000ba6:	8082                	ret
    uvmunmap(pagetable, 0, PGROUNDUP(sz)/PGSIZE, 1);
    80000ba8:	6785                	lui	a5,0x1
    80000baa:	17fd                	add	a5,a5,-1 # fff <_entry-0x7ffff001>
    80000bac:	95be                	add	a1,a1,a5
    80000bae:	4685                	li	a3,1
    80000bb0:	00c5d613          	srl	a2,a1,0xc
    80000bb4:	4581                	li	a1,0
    80000bb6:	00000097          	auipc	ra,0x0
    80000bba:	d06080e7          	jalr	-762(ra) # 800008bc <uvmunmap>
    80000bbe:	bfd9                	j	80000b94 <uvmfree+0xe>

0000000080000bc0 <uvmcopy>:
{
  pte_t *pte;
  uint64 pa, i;
  uint flags;

  for(i = 0; i < sz; i += PGSIZE){
    80000bc0:	c269                	beqz	a2,80000c82 <uvmcopy+0xc2>
{
    80000bc2:	7139                	add	sp,sp,-64
    80000bc4:	fc06                	sd	ra,56(sp)
    80000bc6:	f822                	sd	s0,48(sp)
    80000bc8:	f426                	sd	s1,40(sp)
    80000bca:	f04a                	sd	s2,32(sp)
    80000bcc:	ec4e                	sd	s3,24(sp)
    80000bce:	e852                	sd	s4,16(sp)
    80000bd0:	e456                	sd	s5,8(sp)
    80000bd2:	e05a                	sd	s6,0(sp)
    80000bd4:	0080                	add	s0,sp,64
    80000bd6:	8b2a                	mv	s6,a0
    80000bd8:	8aae                	mv	s5,a1
    80000bda:	8a32                	mv	s4,a2
  for(i = 0; i < sz; i += PGSIZE){
    80000bdc:	4981                	li	s3,0
    if((pte = walk(old, i, 0)) == 0)
    80000bde:	4601                	li	a2,0
    80000be0:	85ce                	mv	a1,s3
    80000be2:	855a                	mv	a0,s6
    80000be4:	00000097          	auipc	ra,0x0
    80000be8:	a06080e7          	jalr	-1530(ra) # 800005ea <walk>
    80000bec:	892a                	mv	s2,a0
    80000bee:	c531                	beqz	a0,80000c3a <uvmcopy+0x7a>
      panic("uvmcopy: pte should exist");
    if((*pte & PTE_V) == 0)
    80000bf0:	6114                	ld	a3,0(a0)
    80000bf2:	0016f793          	and	a5,a3,1
    80000bf6:	cbb1                	beqz	a5,80000c4a <uvmcopy+0x8a>
      panic("uvmcopy: page not present");
    pa = PTE2PA(*pte);
    80000bf8:	82a9                	srl	a3,a3,0xa
    80000bfa:	00c69493          	sll	s1,a3,0xc
    /* Start CMPT 332 group14 change Fall 2023 */
    /* increment page references */
    ref_inc((void*)pa);
    80000bfe:	8526                	mv	a0,s1
    80000c00:	fffff097          	auipc	ra,0xfffff
    80000c04:	646080e7          	jalr	1606(ra) # 80000246 <ref_inc>
    /* can flips the bits of the parent page directly instead of
     * having to reinstall it -- thanks Delaney! */
    *pte &= ~PTE_W; *pte |= PTE_COW;
    80000c08:	00093703          	ld	a4,0(s2) # 1000 <_entry-0x7ffff000>
    80000c0c:	9b6d                	and	a4,a4,-5
    80000c0e:	10076713          	or	a4,a4,256
    80000c12:	00e93023          	sd	a4,0(s2)
    flags = (PTE_FLAGS(*pte));

    /* map the page into the childs page table */
    if(mappages(new, i, PGSIZE, pa, flags) != 0){
    80000c16:	3fb77713          	and	a4,a4,1019
    80000c1a:	86a6                	mv	a3,s1
    80000c1c:	6605                	lui	a2,0x1
    80000c1e:	85ce                	mv	a1,s3
    80000c20:	8556                	mv	a0,s5
    80000c22:	00000097          	auipc	ra,0x0
    80000c26:	ab0080e7          	jalr	-1360(ra) # 800006d2 <mappages>
    80000c2a:	e905                	bnez	a0,80000c5a <uvmcopy+0x9a>
    80000c2c:	12000073          	sfence.vma
  for(i = 0; i < sz; i += PGSIZE){
    80000c30:	6785                	lui	a5,0x1
    80000c32:	99be                	add	s3,s3,a5
    80000c34:	fb49e5e3          	bltu	s3,s4,80000bde <uvmcopy+0x1e>
    80000c38:	a81d                	j	80000c6e <uvmcopy+0xae>
      panic("uvmcopy: pte should exist");
    80000c3a:	00007517          	auipc	a0,0x7
    80000c3e:	50e50513          	add	a0,a0,1294 # 80008148 <etext+0x148>
    80000c42:	00005097          	auipc	ra,0x5
    80000c46:	284080e7          	jalr	644(ra) # 80005ec6 <panic>
      panic("uvmcopy: page not present");
    80000c4a:	00007517          	auipc	a0,0x7
    80000c4e:	51e50513          	add	a0,a0,1310 # 80008168 <etext+0x168>
    80000c52:	00005097          	auipc	ra,0x5
    80000c56:	274080e7          	jalr	628(ra) # 80005ec6 <panic>
    /* End CMPT 332 group14 change Fall 2023 */
  }
  return 0;

 err:
  uvmunmap(new, 0, i / PGSIZE, 1);
    80000c5a:	4685                	li	a3,1
    80000c5c:	00c9d613          	srl	a2,s3,0xc
    80000c60:	4581                	li	a1,0
    80000c62:	8556                	mv	a0,s5
    80000c64:	00000097          	auipc	ra,0x0
    80000c68:	c58080e7          	jalr	-936(ra) # 800008bc <uvmunmap>
  return -1;
    80000c6c:	557d                	li	a0,-1
}
    80000c6e:	70e2                	ld	ra,56(sp)
    80000c70:	7442                	ld	s0,48(sp)
    80000c72:	74a2                	ld	s1,40(sp)
    80000c74:	7902                	ld	s2,32(sp)
    80000c76:	69e2                	ld	s3,24(sp)
    80000c78:	6a42                	ld	s4,16(sp)
    80000c7a:	6aa2                	ld	s5,8(sp)
    80000c7c:	6b02                	ld	s6,0(sp)
    80000c7e:	6121                	add	sp,sp,64
    80000c80:	8082                	ret
  return 0;
    80000c82:	4501                	li	a0,0
}
    80000c84:	8082                	ret

0000000080000c86 <uvmclear>:

/* mark a PTE invalid for user access. */
/* used by exec for the user stack guard page. */
void
uvmclear(pagetable_t pagetable, uint64 va)
{
    80000c86:	1141                	add	sp,sp,-16
    80000c88:	e406                	sd	ra,8(sp)
    80000c8a:	e022                	sd	s0,0(sp)
    80000c8c:	0800                	add	s0,sp,16
  pte_t *pte;
  
  pte = walk(pagetable, va, 0);
    80000c8e:	4601                	li	a2,0
    80000c90:	00000097          	auipc	ra,0x0
    80000c94:	95a080e7          	jalr	-1702(ra) # 800005ea <walk>
  if(pte == 0)
    80000c98:	c901                	beqz	a0,80000ca8 <uvmclear+0x22>
    panic("uvmclear");
  *pte &= ~PTE_U;
    80000c9a:	611c                	ld	a5,0(a0)
    80000c9c:	9bbd                	and	a5,a5,-17
    80000c9e:	e11c                	sd	a5,0(a0)
}
    80000ca0:	60a2                	ld	ra,8(sp)
    80000ca2:	6402                	ld	s0,0(sp)
    80000ca4:	0141                	add	sp,sp,16
    80000ca6:	8082                	ret
    panic("uvmclear");
    80000ca8:	00007517          	auipc	a0,0x7
    80000cac:	4e050513          	add	a0,a0,1248 # 80008188 <etext+0x188>
    80000cb0:	00005097          	auipc	ra,0x5
    80000cb4:	216080e7          	jalr	534(ra) # 80005ec6 <panic>

0000000080000cb8 <copyout>:
copyout(pagetable_t pagetable, uint64 dstva, char *src, uint64 len)
{
  uint64 n, va0, pa0;
  pte_t *pte;

  while(len > 0){
    80000cb8:	cac9                	beqz	a3,80000d4a <copyout+0x92>
{
    80000cba:	711d                	add	sp,sp,-96
    80000cbc:	ec86                	sd	ra,88(sp)
    80000cbe:	e8a2                	sd	s0,80(sp)
    80000cc0:	e4a6                	sd	s1,72(sp)
    80000cc2:	e0ca                	sd	s2,64(sp)
    80000cc4:	fc4e                	sd	s3,56(sp)
    80000cc6:	f852                	sd	s4,48(sp)
    80000cc8:	f456                	sd	s5,40(sp)
    80000cca:	f05a                	sd	s6,32(sp)
    80000ccc:	ec5e                	sd	s7,24(sp)
    80000cce:	e862                	sd	s8,16(sp)
    80000cd0:	e466                	sd	s9,8(sp)
    80000cd2:	e06a                	sd	s10,0(sp)
    80000cd4:	1080                	add	s0,sp,96
    80000cd6:	8baa                	mv	s7,a0
    80000cd8:	8aae                	mv	s5,a1
    80000cda:	8b32                	mv	s6,a2
    80000cdc:	89b6                	mv	s3,a3
    va0 = PGROUNDDOWN(dstva);
    80000cde:	74fd                	lui	s1,0xfffff
    80000ce0:	8ced                	and	s1,s1,a1
    if(va0 >= MAXVA)
    80000ce2:	57fd                	li	a5,-1
    80000ce4:	83e9                	srl	a5,a5,0x1a
    80000ce6:	0697e463          	bltu	a5,s1,80000d4e <copyout+0x96>
      return -1;
    pte = walk(pagetable, va0, 0);
    if(pte == 0 || (*pte & PTE_V) == 0 || (*pte & PTE_U) == 0 ||
    80000cea:	4cd5                	li	s9,21
    80000cec:	6d05                	lui	s10,0x1
    if(va0 >= MAXVA)
    80000cee:	8c3e                	mv	s8,a5
    80000cf0:	a035                	j	80000d1c <copyout+0x64>
       (*pte & PTE_W) == 0)
      return -1;
    pa0 = PTE2PA(*pte);
    80000cf2:	83a9                	srl	a5,a5,0xa
    80000cf4:	07b2                	sll	a5,a5,0xc
    n = PGSIZE - (dstva - va0);
    if(n > len)
      n = len;
    memmove((void *)(pa0 + (dstva - va0)), src, n);
    80000cf6:	409a8533          	sub	a0,s5,s1
    80000cfa:	0009061b          	sext.w	a2,s2
    80000cfe:	85da                	mv	a1,s6
    80000d00:	953e                	add	a0,a0,a5
    80000d02:	fffff097          	auipc	ra,0xfffff
    80000d06:	662080e7          	jalr	1634(ra) # 80000364 <memmove>

    len -= n;
    80000d0a:	412989b3          	sub	s3,s3,s2
    src += n;
    80000d0e:	9b4a                	add	s6,s6,s2
  while(len > 0){
    80000d10:	02098b63          	beqz	s3,80000d46 <copyout+0x8e>
    if(va0 >= MAXVA)
    80000d14:	034c6f63          	bltu	s8,s4,80000d52 <copyout+0x9a>
    va0 = PGROUNDDOWN(dstva);
    80000d18:	84d2                	mv	s1,s4
    dstva = va0 + PGSIZE;
    80000d1a:	8ad2                	mv	s5,s4
    pte = walk(pagetable, va0, 0);
    80000d1c:	4601                	li	a2,0
    80000d1e:	85a6                	mv	a1,s1
    80000d20:	855e                	mv	a0,s7
    80000d22:	00000097          	auipc	ra,0x0
    80000d26:	8c8080e7          	jalr	-1848(ra) # 800005ea <walk>
    if(pte == 0 || (*pte & PTE_V) == 0 || (*pte & PTE_U) == 0 ||
    80000d2a:	c515                	beqz	a0,80000d56 <copyout+0x9e>
    80000d2c:	611c                	ld	a5,0(a0)
    80000d2e:	0157f713          	and	a4,a5,21
    80000d32:	05971163          	bne	a4,s9,80000d74 <copyout+0xbc>
    n = PGSIZE - (dstva - va0);
    80000d36:	01a48a33          	add	s4,s1,s10
    80000d3a:	415a0933          	sub	s2,s4,s5
    80000d3e:	fb29fae3          	bgeu	s3,s2,80000cf2 <copyout+0x3a>
    80000d42:	894e                	mv	s2,s3
    80000d44:	b77d                	j	80000cf2 <copyout+0x3a>
  }
  return 0;
    80000d46:	4501                	li	a0,0
    80000d48:	a801                	j	80000d58 <copyout+0xa0>
    80000d4a:	4501                	li	a0,0
}
    80000d4c:	8082                	ret
      return -1;
    80000d4e:	557d                	li	a0,-1
    80000d50:	a021                	j	80000d58 <copyout+0xa0>
    80000d52:	557d                	li	a0,-1
    80000d54:	a011                	j	80000d58 <copyout+0xa0>
      return -1;
    80000d56:	557d                	li	a0,-1
}
    80000d58:	60e6                	ld	ra,88(sp)
    80000d5a:	6446                	ld	s0,80(sp)
    80000d5c:	64a6                	ld	s1,72(sp)
    80000d5e:	6906                	ld	s2,64(sp)
    80000d60:	79e2                	ld	s3,56(sp)
    80000d62:	7a42                	ld	s4,48(sp)
    80000d64:	7aa2                	ld	s5,40(sp)
    80000d66:	7b02                	ld	s6,32(sp)
    80000d68:	6be2                	ld	s7,24(sp)
    80000d6a:	6c42                	ld	s8,16(sp)
    80000d6c:	6ca2                	ld	s9,8(sp)
    80000d6e:	6d02                	ld	s10,0(sp)
    80000d70:	6125                	add	sp,sp,96
    80000d72:	8082                	ret
      return -1;
    80000d74:	557d                	li	a0,-1
    80000d76:	b7cd                	j	80000d58 <copyout+0xa0>

0000000080000d78 <copyin>:
int
copyin(pagetable_t pagetable, char *dst, uint64 srcva, uint64 len)
{
  uint64 n, va0, pa0;

  while(len > 0){
    80000d78:	caa5                	beqz	a3,80000de8 <copyin+0x70>
{
    80000d7a:	715d                	add	sp,sp,-80
    80000d7c:	e486                	sd	ra,72(sp)
    80000d7e:	e0a2                	sd	s0,64(sp)
    80000d80:	fc26                	sd	s1,56(sp)
    80000d82:	f84a                	sd	s2,48(sp)
    80000d84:	f44e                	sd	s3,40(sp)
    80000d86:	f052                	sd	s4,32(sp)
    80000d88:	ec56                	sd	s5,24(sp)
    80000d8a:	e85a                	sd	s6,16(sp)
    80000d8c:	e45e                	sd	s7,8(sp)
    80000d8e:	e062                	sd	s8,0(sp)
    80000d90:	0880                	add	s0,sp,80
    80000d92:	8b2a                	mv	s6,a0
    80000d94:	8a2e                	mv	s4,a1
    80000d96:	8c32                	mv	s8,a2
    80000d98:	89b6                	mv	s3,a3
    va0 = PGROUNDDOWN(srcva);
    80000d9a:	7bfd                	lui	s7,0xfffff
    pa0 = walkaddr(pagetable, va0);
    if(pa0 == 0)
      return -1;
    n = PGSIZE - (srcva - va0);
    80000d9c:	6a85                	lui	s5,0x1
    80000d9e:	a01d                	j	80000dc4 <copyin+0x4c>
    if(n > len)
      n = len;
    memmove(dst, (void *)(pa0 + (srcva - va0)), n);
    80000da0:	018505b3          	add	a1,a0,s8
    80000da4:	0004861b          	sext.w	a2,s1
    80000da8:	412585b3          	sub	a1,a1,s2
    80000dac:	8552                	mv	a0,s4
    80000dae:	fffff097          	auipc	ra,0xfffff
    80000db2:	5b6080e7          	jalr	1462(ra) # 80000364 <memmove>

    len -= n;
    80000db6:	409989b3          	sub	s3,s3,s1
    dst += n;
    80000dba:	9a26                	add	s4,s4,s1
    srcva = va0 + PGSIZE;
    80000dbc:	01590c33          	add	s8,s2,s5
  while(len > 0){
    80000dc0:	02098263          	beqz	s3,80000de4 <copyin+0x6c>
    va0 = PGROUNDDOWN(srcva);
    80000dc4:	017c7933          	and	s2,s8,s7
    pa0 = walkaddr(pagetable, va0);
    80000dc8:	85ca                	mv	a1,s2
    80000dca:	855a                	mv	a0,s6
    80000dcc:	00000097          	auipc	ra,0x0
    80000dd0:	8c4080e7          	jalr	-1852(ra) # 80000690 <walkaddr>
    if(pa0 == 0)
    80000dd4:	cd01                	beqz	a0,80000dec <copyin+0x74>
    n = PGSIZE - (srcva - va0);
    80000dd6:	418904b3          	sub	s1,s2,s8
    80000dda:	94d6                	add	s1,s1,s5
    80000ddc:	fc99f2e3          	bgeu	s3,s1,80000da0 <copyin+0x28>
    80000de0:	84ce                	mv	s1,s3
    80000de2:	bf7d                	j	80000da0 <copyin+0x28>
  }
  return 0;
    80000de4:	4501                	li	a0,0
    80000de6:	a021                	j	80000dee <copyin+0x76>
    80000de8:	4501                	li	a0,0
}
    80000dea:	8082                	ret
      return -1;
    80000dec:	557d                	li	a0,-1
}
    80000dee:	60a6                	ld	ra,72(sp)
    80000df0:	6406                	ld	s0,64(sp)
    80000df2:	74e2                	ld	s1,56(sp)
    80000df4:	7942                	ld	s2,48(sp)
    80000df6:	79a2                	ld	s3,40(sp)
    80000df8:	7a02                	ld	s4,32(sp)
    80000dfa:	6ae2                	ld	s5,24(sp)
    80000dfc:	6b42                	ld	s6,16(sp)
    80000dfe:	6ba2                	ld	s7,8(sp)
    80000e00:	6c02                	ld	s8,0(sp)
    80000e02:	6161                	add	sp,sp,80
    80000e04:	8082                	ret

0000000080000e06 <copyinstr>:
copyinstr(pagetable_t pagetable, char *dst, uint64 srcva, uint64 max)
{
  uint64 n, va0, pa0;
  int got_null = 0;

  while(got_null == 0 && max > 0){
    80000e06:	c2dd                	beqz	a3,80000eac <copyinstr+0xa6>
{
    80000e08:	715d                	add	sp,sp,-80
    80000e0a:	e486                	sd	ra,72(sp)
    80000e0c:	e0a2                	sd	s0,64(sp)
    80000e0e:	fc26                	sd	s1,56(sp)
    80000e10:	f84a                	sd	s2,48(sp)
    80000e12:	f44e                	sd	s3,40(sp)
    80000e14:	f052                	sd	s4,32(sp)
    80000e16:	ec56                	sd	s5,24(sp)
    80000e18:	e85a                	sd	s6,16(sp)
    80000e1a:	e45e                	sd	s7,8(sp)
    80000e1c:	0880                	add	s0,sp,80
    80000e1e:	8a2a                	mv	s4,a0
    80000e20:	8b2e                	mv	s6,a1
    80000e22:	8bb2                	mv	s7,a2
    80000e24:	84b6                	mv	s1,a3
    va0 = PGROUNDDOWN(srcva);
    80000e26:	7afd                	lui	s5,0xfffff
    pa0 = walkaddr(pagetable, va0);
    if(pa0 == 0)
      return -1;
    n = PGSIZE - (srcva - va0);
    80000e28:	6985                	lui	s3,0x1
    80000e2a:	a02d                	j	80000e54 <copyinstr+0x4e>
      n = max;

    char *p = (char *) (pa0 + (srcva - va0));
    while(n > 0){
      if(*p == '\0'){
        *dst = '\0';
    80000e2c:	00078023          	sb	zero,0(a5) # 1000 <_entry-0x7ffff000>
    80000e30:	4785                	li	a5,1
      dst++;
    }

    srcva = va0 + PGSIZE;
  }
  if(got_null){
    80000e32:	37fd                	addw	a5,a5,-1
    80000e34:	0007851b          	sext.w	a0,a5
    return 0;
  } else {
    return -1;
  }
}
    80000e38:	60a6                	ld	ra,72(sp)
    80000e3a:	6406                	ld	s0,64(sp)
    80000e3c:	74e2                	ld	s1,56(sp)
    80000e3e:	7942                	ld	s2,48(sp)
    80000e40:	79a2                	ld	s3,40(sp)
    80000e42:	7a02                	ld	s4,32(sp)
    80000e44:	6ae2                	ld	s5,24(sp)
    80000e46:	6b42                	ld	s6,16(sp)
    80000e48:	6ba2                	ld	s7,8(sp)
    80000e4a:	6161                	add	sp,sp,80
    80000e4c:	8082                	ret
    srcva = va0 + PGSIZE;
    80000e4e:	01390bb3          	add	s7,s2,s3
  while(got_null == 0 && max > 0){
    80000e52:	c8a9                	beqz	s1,80000ea4 <copyinstr+0x9e>
    va0 = PGROUNDDOWN(srcva);
    80000e54:	015bf933          	and	s2,s7,s5
    pa0 = walkaddr(pagetable, va0);
    80000e58:	85ca                	mv	a1,s2
    80000e5a:	8552                	mv	a0,s4
    80000e5c:	00000097          	auipc	ra,0x0
    80000e60:	834080e7          	jalr	-1996(ra) # 80000690 <walkaddr>
    if(pa0 == 0)
    80000e64:	c131                	beqz	a0,80000ea8 <copyinstr+0xa2>
    n = PGSIZE - (srcva - va0);
    80000e66:	417906b3          	sub	a3,s2,s7
    80000e6a:	96ce                	add	a3,a3,s3
    80000e6c:	00d4f363          	bgeu	s1,a3,80000e72 <copyinstr+0x6c>
    80000e70:	86a6                	mv	a3,s1
    char *p = (char *) (pa0 + (srcva - va0));
    80000e72:	955e                	add	a0,a0,s7
    80000e74:	41250533          	sub	a0,a0,s2
    while(n > 0){
    80000e78:	daf9                	beqz	a3,80000e4e <copyinstr+0x48>
    80000e7a:	87da                	mv	a5,s6
    80000e7c:	885a                	mv	a6,s6
      if(*p == '\0'){
    80000e7e:	41650633          	sub	a2,a0,s6
    while(n > 0){
    80000e82:	96da                	add	a3,a3,s6
    80000e84:	85be                	mv	a1,a5
      if(*p == '\0'){
    80000e86:	00f60733          	add	a4,a2,a5
    80000e8a:	00074703          	lbu	a4,0(a4)
    80000e8e:	df59                	beqz	a4,80000e2c <copyinstr+0x26>
        *dst = *p;
    80000e90:	00e78023          	sb	a4,0(a5)
      dst++;
    80000e94:	0785                	add	a5,a5,1
    while(n > 0){
    80000e96:	fed797e3          	bne	a5,a3,80000e84 <copyinstr+0x7e>
    80000e9a:	14fd                	add	s1,s1,-1 # ffffffffffffefff <end+0xffffffff7ffbcedf>
    80000e9c:	94c2                	add	s1,s1,a6
      --max;
    80000e9e:	8c8d                	sub	s1,s1,a1
      dst++;
    80000ea0:	8b3e                	mv	s6,a5
    80000ea2:	b775                	j	80000e4e <copyinstr+0x48>
    80000ea4:	4781                	li	a5,0
    80000ea6:	b771                	j	80000e32 <copyinstr+0x2c>
      return -1;
    80000ea8:	557d                	li	a0,-1
    80000eaa:	b779                	j	80000e38 <copyinstr+0x32>
  int got_null = 0;
    80000eac:	4781                	li	a5,0
  if(got_null){
    80000eae:	37fd                	addw	a5,a5,-1
    80000eb0:	0007851b          	sext.w	a0,a5
}
    80000eb4:	8082                	ret

0000000080000eb6 <proc_mapstacks>:
/* Allocate a page for each process's kernel stack. */
/* Map it high in memory, followed by an invalid */
/* guard page. */
void
proc_mapstacks(pagetable_t kpgtbl)
{
    80000eb6:	7139                	add	sp,sp,-64
    80000eb8:	fc06                	sd	ra,56(sp)
    80000eba:	f822                	sd	s0,48(sp)
    80000ebc:	f426                	sd	s1,40(sp)
    80000ebe:	f04a                	sd	s2,32(sp)
    80000ec0:	ec4e                	sd	s3,24(sp)
    80000ec2:	e852                	sd	s4,16(sp)
    80000ec4:	e456                	sd	s5,8(sp)
    80000ec6:	e05a                	sd	s6,0(sp)
    80000ec8:	0080                	add	s0,sp,64
    80000eca:	89aa                	mv	s3,a0
  struct proc *p;
  
  for(p = proc; p < &proc[NPROC]; p++) {
    80000ecc:	00028497          	auipc	s1,0x28
    80000ed0:	02c48493          	add	s1,s1,44 # 80028ef8 <proc>
    char *pa = kalloc();
    if(pa == 0)
      panic("kalloc");
    uint64 va = KSTACK((int) (p - proc));
    80000ed4:	8b26                	mv	s6,s1
    80000ed6:	00007a97          	auipc	s5,0x7
    80000eda:	12aa8a93          	add	s5,s5,298 # 80008000 <etext>
    80000ede:	04000937          	lui	s2,0x4000
    80000ee2:	197d                	add	s2,s2,-1 # 3ffffff <_entry-0x7c000001>
    80000ee4:	0932                	sll	s2,s2,0xc
  for(p = proc; p < &proc[NPROC]; p++) {
    80000ee6:	0002ea17          	auipc	s4,0x2e
    80000eea:	c12a0a13          	add	s4,s4,-1006 # 8002eaf8 <tickslock>
    char *pa = kalloc();
    80000eee:	fffff097          	auipc	ra,0xfffff
    80000ef2:	2a6080e7          	jalr	678(ra) # 80000194 <kalloc>
    80000ef6:	862a                	mv	a2,a0
    if(pa == 0)
    80000ef8:	c131                	beqz	a0,80000f3c <proc_mapstacks+0x86>
    uint64 va = KSTACK((int) (p - proc));
    80000efa:	416485b3          	sub	a1,s1,s6
    80000efe:	8591                	sra	a1,a1,0x4
    80000f00:	000ab783          	ld	a5,0(s5)
    80000f04:	02f585b3          	mul	a1,a1,a5
    80000f08:	2585                	addw	a1,a1,1
    80000f0a:	00d5959b          	sllw	a1,a1,0xd
    kvmmap(kpgtbl, va, (uint64)pa, PGSIZE, PTE_R | PTE_W);
    80000f0e:	4719                	li	a4,6
    80000f10:	6685                	lui	a3,0x1
    80000f12:	40b905b3          	sub	a1,s2,a1
    80000f16:	854e                	mv	a0,s3
    80000f18:	00000097          	auipc	ra,0x0
    80000f1c:	87e080e7          	jalr	-1922(ra) # 80000796 <kvmmap>
  for(p = proc; p < &proc[NPROC]; p++) {
    80000f20:	17048493          	add	s1,s1,368
    80000f24:	fd4495e3          	bne	s1,s4,80000eee <proc_mapstacks+0x38>
  }
}
    80000f28:	70e2                	ld	ra,56(sp)
    80000f2a:	7442                	ld	s0,48(sp)
    80000f2c:	74a2                	ld	s1,40(sp)
    80000f2e:	7902                	ld	s2,32(sp)
    80000f30:	69e2                	ld	s3,24(sp)
    80000f32:	6a42                	ld	s4,16(sp)
    80000f34:	6aa2                	ld	s5,8(sp)
    80000f36:	6b02                	ld	s6,0(sp)
    80000f38:	6121                	add	sp,sp,64
    80000f3a:	8082                	ret
      panic("kalloc");
    80000f3c:	00007517          	auipc	a0,0x7
    80000f40:	25c50513          	add	a0,a0,604 # 80008198 <etext+0x198>
    80000f44:	00005097          	auipc	ra,0x5
    80000f48:	f82080e7          	jalr	-126(ra) # 80005ec6 <panic>

0000000080000f4c <procinit>:

/* initialize the proc table. */
void
procinit(void)
{
    80000f4c:	7139                	add	sp,sp,-64
    80000f4e:	fc06                	sd	ra,56(sp)
    80000f50:	f822                	sd	s0,48(sp)
    80000f52:	f426                	sd	s1,40(sp)
    80000f54:	f04a                	sd	s2,32(sp)
    80000f56:	ec4e                	sd	s3,24(sp)
    80000f58:	e852                	sd	s4,16(sp)
    80000f5a:	e456                	sd	s5,8(sp)
    80000f5c:	e05a                	sd	s6,0(sp)
    80000f5e:	0080                	add	s0,sp,64
  struct proc *p;
  
  initlock(&pid_lock, "nextpid");
    80000f60:	00007597          	auipc	a1,0x7
    80000f64:	24058593          	add	a1,a1,576 # 800081a0 <etext+0x1a0>
    80000f68:	00028517          	auipc	a0,0x28
    80000f6c:	b6050513          	add	a0,a0,-1184 # 80028ac8 <pid_lock>
    80000f70:	00005097          	auipc	ra,0x5
    80000f74:	3fe080e7          	jalr	1022(ra) # 8000636e <initlock>
  initlock(&wait_lock, "wait_lock");
    80000f78:	00007597          	auipc	a1,0x7
    80000f7c:	23058593          	add	a1,a1,560 # 800081a8 <etext+0x1a8>
    80000f80:	00028517          	auipc	a0,0x28
    80000f84:	b6050513          	add	a0,a0,-1184 # 80028ae0 <wait_lock>
    80000f88:	00005097          	auipc	ra,0x5
    80000f8c:	3e6080e7          	jalr	998(ra) # 8000636e <initlock>
  for(p = proc; p < &proc[NPROC]; p++) {
    80000f90:	00028497          	auipc	s1,0x28
    80000f94:	f6848493          	add	s1,s1,-152 # 80028ef8 <proc>
      initlock(&p->lock, "proc");
    80000f98:	00007b17          	auipc	s6,0x7
    80000f9c:	220b0b13          	add	s6,s6,544 # 800081b8 <etext+0x1b8>
      p->state = UNUSED;
      p->kstack = KSTACK((int) (p - proc));
    80000fa0:	8aa6                	mv	s5,s1
    80000fa2:	00007a17          	auipc	s4,0x7
    80000fa6:	05ea0a13          	add	s4,s4,94 # 80008000 <etext>
    80000faa:	04000937          	lui	s2,0x4000
    80000fae:	197d                	add	s2,s2,-1 # 3ffffff <_entry-0x7c000001>
    80000fb0:	0932                	sll	s2,s2,0xc
  for(p = proc; p < &proc[NPROC]; p++) {
    80000fb2:	0002e997          	auipc	s3,0x2e
    80000fb6:	b4698993          	add	s3,s3,-1210 # 8002eaf8 <tickslock>
      initlock(&p->lock, "proc");
    80000fba:	85da                	mv	a1,s6
    80000fbc:	8526                	mv	a0,s1
    80000fbe:	00005097          	auipc	ra,0x5
    80000fc2:	3b0080e7          	jalr	944(ra) # 8000636e <initlock>
      p->state = UNUSED;
    80000fc6:	0004ac23          	sw	zero,24(s1)
      p->kstack = KSTACK((int) (p - proc));
    80000fca:	415487b3          	sub	a5,s1,s5
    80000fce:	8791                	sra	a5,a5,0x4
    80000fd0:	000a3703          	ld	a4,0(s4)
    80000fd4:	02e787b3          	mul	a5,a5,a4
    80000fd8:	2785                	addw	a5,a5,1
    80000fda:	00d7979b          	sllw	a5,a5,0xd
    80000fde:	40f907b3          	sub	a5,s2,a5
    80000fe2:	e0bc                	sd	a5,64(s1)
  for(p = proc; p < &proc[NPROC]; p++) {
    80000fe4:	17048493          	add	s1,s1,368
    80000fe8:	fd3499e3          	bne	s1,s3,80000fba <procinit+0x6e>
  }
}
    80000fec:	70e2                	ld	ra,56(sp)
    80000fee:	7442                	ld	s0,48(sp)
    80000ff0:	74a2                	ld	s1,40(sp)
    80000ff2:	7902                	ld	s2,32(sp)
    80000ff4:	69e2                	ld	s3,24(sp)
    80000ff6:	6a42                	ld	s4,16(sp)
    80000ff8:	6aa2                	ld	s5,8(sp)
    80000ffa:	6b02                	ld	s6,0(sp)
    80000ffc:	6121                	add	sp,sp,64
    80000ffe:	8082                	ret

0000000080001000 <cpuid>:
/* Must be called with interrupts disabled, */
/* to prevent race with process being moved */
/* to a different CPU. */
int
cpuid()
{
    80001000:	1141                	add	sp,sp,-16
    80001002:	e422                	sd	s0,8(sp)
    80001004:	0800                	add	s0,sp,16
  asm volatile("mv %0, tp" : "=r" (x) );
    80001006:	8512                	mv	a0,tp
  int id = r_tp();
  return id;
}
    80001008:	2501                	sext.w	a0,a0
    8000100a:	6422                	ld	s0,8(sp)
    8000100c:	0141                	add	sp,sp,16
    8000100e:	8082                	ret

0000000080001010 <mycpu>:

/* Return this CPU's cpu struct. */
/* Interrupts must be disabled. */
struct cpu*
mycpu(void)
{
    80001010:	1141                	add	sp,sp,-16
    80001012:	e422                	sd	s0,8(sp)
    80001014:	0800                	add	s0,sp,16
    80001016:	8792                	mv	a5,tp
  int id = cpuid();
  struct cpu *c = &cpus[id];
    80001018:	2781                	sext.w	a5,a5
    8000101a:	079e                	sll	a5,a5,0x7
  return c;
}
    8000101c:	00028517          	auipc	a0,0x28
    80001020:	adc50513          	add	a0,a0,-1316 # 80028af8 <cpus>
    80001024:	953e                	add	a0,a0,a5
    80001026:	6422                	ld	s0,8(sp)
    80001028:	0141                	add	sp,sp,16
    8000102a:	8082                	ret

000000008000102c <myproc>:

/* Return the current struct proc *, or zero if none. */
struct proc*
myproc(void)
{
    8000102c:	1101                	add	sp,sp,-32
    8000102e:	ec06                	sd	ra,24(sp)
    80001030:	e822                	sd	s0,16(sp)
    80001032:	e426                	sd	s1,8(sp)
    80001034:	1000                	add	s0,sp,32
  push_off();
    80001036:	00005097          	auipc	ra,0x5
    8000103a:	37c080e7          	jalr	892(ra) # 800063b2 <push_off>
    8000103e:	8792                	mv	a5,tp
  struct cpu *c = mycpu();
  struct proc *p = c->proc;
    80001040:	2781                	sext.w	a5,a5
    80001042:	079e                	sll	a5,a5,0x7
    80001044:	00028717          	auipc	a4,0x28
    80001048:	a8470713          	add	a4,a4,-1404 # 80028ac8 <pid_lock>
    8000104c:	97ba                	add	a5,a5,a4
    8000104e:	7b84                	ld	s1,48(a5)
  pop_off();
    80001050:	00005097          	auipc	ra,0x5
    80001054:	402080e7          	jalr	1026(ra) # 80006452 <pop_off>
  return p;
}
    80001058:	8526                	mv	a0,s1
    8000105a:	60e2                	ld	ra,24(sp)
    8000105c:	6442                	ld	s0,16(sp)
    8000105e:	64a2                	ld	s1,8(sp)
    80001060:	6105                	add	sp,sp,32
    80001062:	8082                	ret

0000000080001064 <forkret>:

/* A fork child's very first scheduling by scheduler() */
/* will swtch to forkret. */
void
forkret(void)
{
    80001064:	1141                	add	sp,sp,-16
    80001066:	e406                	sd	ra,8(sp)
    80001068:	e022                	sd	s0,0(sp)
    8000106a:	0800                	add	s0,sp,16
  static int first = 1;

  /* Still holding p->lock from scheduler. */
  release(&myproc()->lock);
    8000106c:	00000097          	auipc	ra,0x0
    80001070:	fc0080e7          	jalr	-64(ra) # 8000102c <myproc>
    80001074:	00005097          	auipc	ra,0x5
    80001078:	43e080e7          	jalr	1086(ra) # 800064b2 <release>

  if (first) {
    8000107c:	00008797          	auipc	a5,0x8
    80001080:	8f47a783          	lw	a5,-1804(a5) # 80008970 <first.1>
    80001084:	eb89                	bnez	a5,80001096 <forkret+0x32>
    first = 0;
    /* ensure other cores see first=0. */
    __sync_synchronize();
  }

  usertrapret();
    80001086:	00001097          	auipc	ra,0x1
    8000108a:	c8a080e7          	jalr	-886(ra) # 80001d10 <usertrapret>
}
    8000108e:	60a2                	ld	ra,8(sp)
    80001090:	6402                	ld	s0,0(sp)
    80001092:	0141                	add	sp,sp,16
    80001094:	8082                	ret
    fsinit(ROOTDEV);
    80001096:	4505                	li	a0,1
    80001098:	00002097          	auipc	ra,0x2
    8000109c:	b5c080e7          	jalr	-1188(ra) # 80002bf4 <fsinit>
    first = 0;
    800010a0:	00008797          	auipc	a5,0x8
    800010a4:	8c07a823          	sw	zero,-1840(a5) # 80008970 <first.1>
    __sync_synchronize();
    800010a8:	0ff0000f          	fence
    800010ac:	bfe9                	j	80001086 <forkret+0x22>

00000000800010ae <allocpid>:
{
    800010ae:	1101                	add	sp,sp,-32
    800010b0:	ec06                	sd	ra,24(sp)
    800010b2:	e822                	sd	s0,16(sp)
    800010b4:	e426                	sd	s1,8(sp)
    800010b6:	e04a                	sd	s2,0(sp)
    800010b8:	1000                	add	s0,sp,32
  acquire(&pid_lock);
    800010ba:	00028917          	auipc	s2,0x28
    800010be:	a0e90913          	add	s2,s2,-1522 # 80028ac8 <pid_lock>
    800010c2:	854a                	mv	a0,s2
    800010c4:	00005097          	auipc	ra,0x5
    800010c8:	33a080e7          	jalr	826(ra) # 800063fe <acquire>
  pid = nextpid;
    800010cc:	00008797          	auipc	a5,0x8
    800010d0:	8a878793          	add	a5,a5,-1880 # 80008974 <nextpid>
    800010d4:	4384                	lw	s1,0(a5)
  nextpid = nextpid + 1;
    800010d6:	0014871b          	addw	a4,s1,1
    800010da:	c398                	sw	a4,0(a5)
  release(&pid_lock);
    800010dc:	854a                	mv	a0,s2
    800010de:	00005097          	auipc	ra,0x5
    800010e2:	3d4080e7          	jalr	980(ra) # 800064b2 <release>
}
    800010e6:	8526                	mv	a0,s1
    800010e8:	60e2                	ld	ra,24(sp)
    800010ea:	6442                	ld	s0,16(sp)
    800010ec:	64a2                	ld	s1,8(sp)
    800010ee:	6902                	ld	s2,0(sp)
    800010f0:	6105                	add	sp,sp,32
    800010f2:	8082                	ret

00000000800010f4 <proc_pagetable>:
{
    800010f4:	1101                	add	sp,sp,-32
    800010f6:	ec06                	sd	ra,24(sp)
    800010f8:	e822                	sd	s0,16(sp)
    800010fa:	e426                	sd	s1,8(sp)
    800010fc:	e04a                	sd	s2,0(sp)
    800010fe:	1000                	add	s0,sp,32
    80001100:	892a                	mv	s2,a0
  pagetable = uvmcreate();
    80001102:	00000097          	auipc	ra,0x0
    80001106:	87e080e7          	jalr	-1922(ra) # 80000980 <uvmcreate>
    8000110a:	84aa                	mv	s1,a0
  if(pagetable == 0)
    8000110c:	c121                	beqz	a0,8000114c <proc_pagetable+0x58>
  if(mappages(pagetable, TRAMPOLINE, PGSIZE,
    8000110e:	4729                	li	a4,10
    80001110:	00006697          	auipc	a3,0x6
    80001114:	ef068693          	add	a3,a3,-272 # 80007000 <_trampoline>
    80001118:	6605                	lui	a2,0x1
    8000111a:	040005b7          	lui	a1,0x4000
    8000111e:	15fd                	add	a1,a1,-1 # 3ffffff <_entry-0x7c000001>
    80001120:	05b2                	sll	a1,a1,0xc
    80001122:	fffff097          	auipc	ra,0xfffff
    80001126:	5b0080e7          	jalr	1456(ra) # 800006d2 <mappages>
    8000112a:	02054863          	bltz	a0,8000115a <proc_pagetable+0x66>
  if(mappages(pagetable, TRAPFRAME, PGSIZE,
    8000112e:	4719                	li	a4,6
    80001130:	05893683          	ld	a3,88(s2)
    80001134:	6605                	lui	a2,0x1
    80001136:	020005b7          	lui	a1,0x2000
    8000113a:	15fd                	add	a1,a1,-1 # 1ffffff <_entry-0x7e000001>
    8000113c:	05b6                	sll	a1,a1,0xd
    8000113e:	8526                	mv	a0,s1
    80001140:	fffff097          	auipc	ra,0xfffff
    80001144:	592080e7          	jalr	1426(ra) # 800006d2 <mappages>
    80001148:	02054163          	bltz	a0,8000116a <proc_pagetable+0x76>
}
    8000114c:	8526                	mv	a0,s1
    8000114e:	60e2                	ld	ra,24(sp)
    80001150:	6442                	ld	s0,16(sp)
    80001152:	64a2                	ld	s1,8(sp)
    80001154:	6902                	ld	s2,0(sp)
    80001156:	6105                	add	sp,sp,32
    80001158:	8082                	ret
    uvmfree(pagetable, 0);
    8000115a:	4581                	li	a1,0
    8000115c:	8526                	mv	a0,s1
    8000115e:	00000097          	auipc	ra,0x0
    80001162:	a28080e7          	jalr	-1496(ra) # 80000b86 <uvmfree>
    return 0;
    80001166:	4481                	li	s1,0
    80001168:	b7d5                	j	8000114c <proc_pagetable+0x58>
    uvmunmap(pagetable, TRAMPOLINE, 1, 0);
    8000116a:	4681                	li	a3,0
    8000116c:	4605                	li	a2,1
    8000116e:	040005b7          	lui	a1,0x4000
    80001172:	15fd                	add	a1,a1,-1 # 3ffffff <_entry-0x7c000001>
    80001174:	05b2                	sll	a1,a1,0xc
    80001176:	8526                	mv	a0,s1
    80001178:	fffff097          	auipc	ra,0xfffff
    8000117c:	744080e7          	jalr	1860(ra) # 800008bc <uvmunmap>
    uvmfree(pagetable, 0);
    80001180:	4581                	li	a1,0
    80001182:	8526                	mv	a0,s1
    80001184:	00000097          	auipc	ra,0x0
    80001188:	a02080e7          	jalr	-1534(ra) # 80000b86 <uvmfree>
    return 0;
    8000118c:	4481                	li	s1,0
    8000118e:	bf7d                	j	8000114c <proc_pagetable+0x58>

0000000080001190 <proc_freepagetable>:
{
    80001190:	1101                	add	sp,sp,-32
    80001192:	ec06                	sd	ra,24(sp)
    80001194:	e822                	sd	s0,16(sp)
    80001196:	e426                	sd	s1,8(sp)
    80001198:	e04a                	sd	s2,0(sp)
    8000119a:	1000                	add	s0,sp,32
    8000119c:	84aa                	mv	s1,a0
    8000119e:	892e                	mv	s2,a1
  uvmunmap(pagetable, TRAMPOLINE, 1, 0);
    800011a0:	4681                	li	a3,0
    800011a2:	4605                	li	a2,1
    800011a4:	040005b7          	lui	a1,0x4000
    800011a8:	15fd                	add	a1,a1,-1 # 3ffffff <_entry-0x7c000001>
    800011aa:	05b2                	sll	a1,a1,0xc
    800011ac:	fffff097          	auipc	ra,0xfffff
    800011b0:	710080e7          	jalr	1808(ra) # 800008bc <uvmunmap>
  uvmunmap(pagetable, TRAPFRAME, 1, 0);
    800011b4:	4681                	li	a3,0
    800011b6:	4605                	li	a2,1
    800011b8:	020005b7          	lui	a1,0x2000
    800011bc:	15fd                	add	a1,a1,-1 # 1ffffff <_entry-0x7e000001>
    800011be:	05b6                	sll	a1,a1,0xd
    800011c0:	8526                	mv	a0,s1
    800011c2:	fffff097          	auipc	ra,0xfffff
    800011c6:	6fa080e7          	jalr	1786(ra) # 800008bc <uvmunmap>
  uvmfree(pagetable, sz);
    800011ca:	85ca                	mv	a1,s2
    800011cc:	8526                	mv	a0,s1
    800011ce:	00000097          	auipc	ra,0x0
    800011d2:	9b8080e7          	jalr	-1608(ra) # 80000b86 <uvmfree>
}
    800011d6:	60e2                	ld	ra,24(sp)
    800011d8:	6442                	ld	s0,16(sp)
    800011da:	64a2                	ld	s1,8(sp)
    800011dc:	6902                	ld	s2,0(sp)
    800011de:	6105                	add	sp,sp,32
    800011e0:	8082                	ret

00000000800011e2 <freeproc>:
{
    800011e2:	1101                	add	sp,sp,-32
    800011e4:	ec06                	sd	ra,24(sp)
    800011e6:	e822                	sd	s0,16(sp)
    800011e8:	e426                	sd	s1,8(sp)
    800011ea:	1000                	add	s0,sp,32
    800011ec:	84aa                	mv	s1,a0
  if(p->trapframe)
    800011ee:	6d28                	ld	a0,88(a0)
    800011f0:	c509                	beqz	a0,800011fa <freeproc+0x18>
    kfree((void*)p->trapframe);
    800011f2:	fffff097          	auipc	ra,0xfffff
    800011f6:	e2a080e7          	jalr	-470(ra) # 8000001c <kfree>
  p->trapframe = 0;
    800011fa:	0404bc23          	sd	zero,88(s1)
  if(p->pagetable)
    800011fe:	68a8                	ld	a0,80(s1)
    80001200:	c511                	beqz	a0,8000120c <freeproc+0x2a>
    proc_freepagetable(p->pagetable, p->sz);
    80001202:	64ac                	ld	a1,72(s1)
    80001204:	00000097          	auipc	ra,0x0
    80001208:	f8c080e7          	jalr	-116(ra) # 80001190 <proc_freepagetable>
  p->pagetable = 0;
    8000120c:	0404b823          	sd	zero,80(s1)
  p->sz = 0;
    80001210:	0404b423          	sd	zero,72(s1)
  p->pid = 0;
    80001214:	0204a823          	sw	zero,48(s1)
  p->parent = 0;
    80001218:	0204bc23          	sd	zero,56(s1)
  p->name[0] = 0;
    8000121c:	14048c23          	sb	zero,344(s1)
  p->chan = 0;
    80001220:	0204b023          	sd	zero,32(s1)
  p->killed = 0;
    80001224:	0204a423          	sw	zero,40(s1)
  p->xstate = 0;
    80001228:	0204a623          	sw	zero,44(s1)
  p->state = UNUSED;
    8000122c:	0004ac23          	sw	zero,24(s1)
}
    80001230:	60e2                	ld	ra,24(sp)
    80001232:	6442                	ld	s0,16(sp)
    80001234:	64a2                	ld	s1,8(sp)
    80001236:	6105                	add	sp,sp,32
    80001238:	8082                	ret

000000008000123a <allocproc>:
{
    8000123a:	1101                	add	sp,sp,-32
    8000123c:	ec06                	sd	ra,24(sp)
    8000123e:	e822                	sd	s0,16(sp)
    80001240:	e426                	sd	s1,8(sp)
    80001242:	e04a                	sd	s2,0(sp)
    80001244:	1000                	add	s0,sp,32
  for(p = proc; p < &proc[NPROC]; p++) {
    80001246:	00028497          	auipc	s1,0x28
    8000124a:	cb248493          	add	s1,s1,-846 # 80028ef8 <proc>
    8000124e:	0002e917          	auipc	s2,0x2e
    80001252:	8aa90913          	add	s2,s2,-1878 # 8002eaf8 <tickslock>
    acquire(&p->lock);
    80001256:	8526                	mv	a0,s1
    80001258:	00005097          	auipc	ra,0x5
    8000125c:	1a6080e7          	jalr	422(ra) # 800063fe <acquire>
    if(p->state == UNUSED) {
    80001260:	4c9c                	lw	a5,24(s1)
    80001262:	cf81                	beqz	a5,8000127a <allocproc+0x40>
      release(&p->lock);
    80001264:	8526                	mv	a0,s1
    80001266:	00005097          	auipc	ra,0x5
    8000126a:	24c080e7          	jalr	588(ra) # 800064b2 <release>
  for(p = proc; p < &proc[NPROC]; p++) {
    8000126e:	17048493          	add	s1,s1,368
    80001272:	ff2492e3          	bne	s1,s2,80001256 <allocproc+0x1c>
  return 0;
    80001276:	4481                	li	s1,0
    80001278:	a889                	j	800012ca <allocproc+0x90>
  p->pid = allocpid();
    8000127a:	00000097          	auipc	ra,0x0
    8000127e:	e34080e7          	jalr	-460(ra) # 800010ae <allocpid>
    80001282:	d888                	sw	a0,48(s1)
  p->state = USED;
    80001284:	4785                	li	a5,1
    80001286:	cc9c                	sw	a5,24(s1)
  if((p->trapframe = (struct trapframe *)kalloc()) == 0){
    80001288:	fffff097          	auipc	ra,0xfffff
    8000128c:	f0c080e7          	jalr	-244(ra) # 80000194 <kalloc>
    80001290:	892a                	mv	s2,a0
    80001292:	eca8                	sd	a0,88(s1)
    80001294:	c131                	beqz	a0,800012d8 <allocproc+0x9e>
  p->pagetable = proc_pagetable(p);
    80001296:	8526                	mv	a0,s1
    80001298:	00000097          	auipc	ra,0x0
    8000129c:	e5c080e7          	jalr	-420(ra) # 800010f4 <proc_pagetable>
    800012a0:	892a                	mv	s2,a0
    800012a2:	e8a8                	sd	a0,80(s1)
  if(p->pagetable == 0){
    800012a4:	c531                	beqz	a0,800012f0 <allocproc+0xb6>
  memset(&p->context, 0, sizeof(p->context));
    800012a6:	07000613          	li	a2,112
    800012aa:	4581                	li	a1,0
    800012ac:	06048513          	add	a0,s1,96
    800012b0:	fffff097          	auipc	ra,0xfffff
    800012b4:	058080e7          	jalr	88(ra) # 80000308 <memset>
  p->context.ra = (uint64)forkret;
    800012b8:	00000797          	auipc	a5,0x0
    800012bc:	dac78793          	add	a5,a5,-596 # 80001064 <forkret>
    800012c0:	f0bc                	sd	a5,96(s1)
  p->context.sp = p->kstack + PGSIZE;
    800012c2:	60bc                	ld	a5,64(s1)
    800012c4:	6705                	lui	a4,0x1
    800012c6:	97ba                	add	a5,a5,a4
    800012c8:	f4bc                	sd	a5,104(s1)
}
    800012ca:	8526                	mv	a0,s1
    800012cc:	60e2                	ld	ra,24(sp)
    800012ce:	6442                	ld	s0,16(sp)
    800012d0:	64a2                	ld	s1,8(sp)
    800012d2:	6902                	ld	s2,0(sp)
    800012d4:	6105                	add	sp,sp,32
    800012d6:	8082                	ret
    freeproc(p);
    800012d8:	8526                	mv	a0,s1
    800012da:	00000097          	auipc	ra,0x0
    800012de:	f08080e7          	jalr	-248(ra) # 800011e2 <freeproc>
    release(&p->lock);
    800012e2:	8526                	mv	a0,s1
    800012e4:	00005097          	auipc	ra,0x5
    800012e8:	1ce080e7          	jalr	462(ra) # 800064b2 <release>
    return 0;
    800012ec:	84ca                	mv	s1,s2
    800012ee:	bff1                	j	800012ca <allocproc+0x90>
    freeproc(p);
    800012f0:	8526                	mv	a0,s1
    800012f2:	00000097          	auipc	ra,0x0
    800012f6:	ef0080e7          	jalr	-272(ra) # 800011e2 <freeproc>
    release(&p->lock);
    800012fa:	8526                	mv	a0,s1
    800012fc:	00005097          	auipc	ra,0x5
    80001300:	1b6080e7          	jalr	438(ra) # 800064b2 <release>
    return 0;
    80001304:	84ca                	mv	s1,s2
    80001306:	b7d1                	j	800012ca <allocproc+0x90>

0000000080001308 <userinit>:
{
    80001308:	1101                	add	sp,sp,-32
    8000130a:	ec06                	sd	ra,24(sp)
    8000130c:	e822                	sd	s0,16(sp)
    8000130e:	e426                	sd	s1,8(sp)
    80001310:	1000                	add	s0,sp,32
  p = allocproc();
    80001312:	00000097          	auipc	ra,0x0
    80001316:	f28080e7          	jalr	-216(ra) # 8000123a <allocproc>
    8000131a:	84aa                	mv	s1,a0
  initproc = p;
    8000131c:	00007797          	auipc	a5,0x7
    80001320:	76a7b223          	sd	a0,1892(a5) # 80008a80 <initproc>
  uvmfirst(p->pagetable, initcode, sizeof(initcode));
    80001324:	03400613          	li	a2,52
    80001328:	00007597          	auipc	a1,0x7
    8000132c:	65858593          	add	a1,a1,1624 # 80008980 <initcode>
    80001330:	6928                	ld	a0,80(a0)
    80001332:	fffff097          	auipc	ra,0xfffff
    80001336:	67c080e7          	jalr	1660(ra) # 800009ae <uvmfirst>
  p->sz = PGSIZE;
    8000133a:	6785                	lui	a5,0x1
    8000133c:	e4bc                	sd	a5,72(s1)
  p->trapframe->epc = 0;      /* user program counter */
    8000133e:	6cb8                	ld	a4,88(s1)
    80001340:	00073c23          	sd	zero,24(a4) # 1018 <_entry-0x7fffefe8>
  p->trapframe->sp = PGSIZE;  /* user stack pointer */
    80001344:	6cb8                	ld	a4,88(s1)
    80001346:	fb1c                	sd	a5,48(a4)
  safestrcpy(p->name, "initcode", sizeof(p->name));
    80001348:	4641                	li	a2,16
    8000134a:	00007597          	auipc	a1,0x7
    8000134e:	e7658593          	add	a1,a1,-394 # 800081c0 <etext+0x1c0>
    80001352:	15848513          	add	a0,s1,344
    80001356:	fffff097          	auipc	ra,0xfffff
    8000135a:	0fa080e7          	jalr	250(ra) # 80000450 <safestrcpy>
  p->cwd = namei("/");
    8000135e:	00007517          	auipc	a0,0x7
    80001362:	e7250513          	add	a0,a0,-398 # 800081d0 <etext+0x1d0>
    80001366:	00002097          	auipc	ra,0x2
    8000136a:	2ac080e7          	jalr	684(ra) # 80003612 <namei>
    8000136e:	14a4b823          	sd	a0,336(s1)
  p->state = RUNNABLE;
    80001372:	478d                	li	a5,3
    80001374:	cc9c                	sw	a5,24(s1)
  release(&p->lock);
    80001376:	8526                	mv	a0,s1
    80001378:	00005097          	auipc	ra,0x5
    8000137c:	13a080e7          	jalr	314(ra) # 800064b2 <release>
}
    80001380:	60e2                	ld	ra,24(sp)
    80001382:	6442                	ld	s0,16(sp)
    80001384:	64a2                	ld	s1,8(sp)
    80001386:	6105                	add	sp,sp,32
    80001388:	8082                	ret

000000008000138a <growproc>:
{
    8000138a:	1101                	add	sp,sp,-32
    8000138c:	ec06                	sd	ra,24(sp)
    8000138e:	e822                	sd	s0,16(sp)
    80001390:	e426                	sd	s1,8(sp)
    80001392:	e04a                	sd	s2,0(sp)
    80001394:	1000                	add	s0,sp,32
    80001396:	892a                	mv	s2,a0
  struct proc *p = myproc();
    80001398:	00000097          	auipc	ra,0x0
    8000139c:	c94080e7          	jalr	-876(ra) # 8000102c <myproc>
    800013a0:	84aa                	mv	s1,a0
  sz = p->sz;
    800013a2:	652c                	ld	a1,72(a0)
  if(n > 0){
    800013a4:	01204c63          	bgtz	s2,800013bc <growproc+0x32>
  } else if(n < 0){
    800013a8:	02094663          	bltz	s2,800013d4 <growproc+0x4a>
  p->sz = sz;
    800013ac:	e4ac                	sd	a1,72(s1)
  return 0;
    800013ae:	4501                	li	a0,0
}
    800013b0:	60e2                	ld	ra,24(sp)
    800013b2:	6442                	ld	s0,16(sp)
    800013b4:	64a2                	ld	s1,8(sp)
    800013b6:	6902                	ld	s2,0(sp)
    800013b8:	6105                	add	sp,sp,32
    800013ba:	8082                	ret
    if((sz = uvmalloc(p->pagetable, sz, sz + n, PTE_W)) == 0) {
    800013bc:	4691                	li	a3,4
    800013be:	00b90633          	add	a2,s2,a1
    800013c2:	6928                	ld	a0,80(a0)
    800013c4:	fffff097          	auipc	ra,0xfffff
    800013c8:	6a4080e7          	jalr	1700(ra) # 80000a68 <uvmalloc>
    800013cc:	85aa                	mv	a1,a0
    800013ce:	fd79                	bnez	a0,800013ac <growproc+0x22>
      return -1;
    800013d0:	557d                	li	a0,-1
    800013d2:	bff9                	j	800013b0 <growproc+0x26>
    sz = uvmdealloc(p->pagetable, sz, sz + n);
    800013d4:	00b90633          	add	a2,s2,a1
    800013d8:	6928                	ld	a0,80(a0)
    800013da:	fffff097          	auipc	ra,0xfffff
    800013de:	646080e7          	jalr	1606(ra) # 80000a20 <uvmdealloc>
    800013e2:	85aa                	mv	a1,a0
    800013e4:	b7e1                	j	800013ac <growproc+0x22>

00000000800013e6 <fork>:
{
    800013e6:	7139                	add	sp,sp,-64
    800013e8:	fc06                	sd	ra,56(sp)
    800013ea:	f822                	sd	s0,48(sp)
    800013ec:	f426                	sd	s1,40(sp)
    800013ee:	f04a                	sd	s2,32(sp)
    800013f0:	ec4e                	sd	s3,24(sp)
    800013f2:	e852                	sd	s4,16(sp)
    800013f4:	e456                	sd	s5,8(sp)
    800013f6:	0080                	add	s0,sp,64
  struct proc *p = myproc();
    800013f8:	00000097          	auipc	ra,0x0
    800013fc:	c34080e7          	jalr	-972(ra) # 8000102c <myproc>
    80001400:	8aaa                	mv	s5,a0
  if((np = allocproc()) == 0){
    80001402:	00000097          	auipc	ra,0x0
    80001406:	e38080e7          	jalr	-456(ra) # 8000123a <allocproc>
    8000140a:	12050063          	beqz	a0,8000152a <fork+0x144>
    8000140e:	89aa                	mv	s3,a0
  if(uvmcopy(p->pagetable, np->pagetable, p->sz) < 0){
    80001410:	048ab603          	ld	a2,72(s5)
    80001414:	692c                	ld	a1,80(a0)
    80001416:	050ab503          	ld	a0,80(s5)
    8000141a:	fffff097          	auipc	ra,0xfffff
    8000141e:	7a6080e7          	jalr	1958(ra) # 80000bc0 <uvmcopy>
    80001422:	04054863          	bltz	a0,80001472 <fork+0x8c>
  np->sz = p->sz;
    80001426:	048ab783          	ld	a5,72(s5)
    8000142a:	04f9b423          	sd	a5,72(s3)
  *(np->trapframe) = *(p->trapframe);
    8000142e:	058ab683          	ld	a3,88(s5)
    80001432:	87b6                	mv	a5,a3
    80001434:	0589b703          	ld	a4,88(s3)
    80001438:	12068693          	add	a3,a3,288
    8000143c:	0007b803          	ld	a6,0(a5) # 1000 <_entry-0x7ffff000>
    80001440:	6788                	ld	a0,8(a5)
    80001442:	6b8c                	ld	a1,16(a5)
    80001444:	6f90                	ld	a2,24(a5)
    80001446:	01073023          	sd	a6,0(a4)
    8000144a:	e708                	sd	a0,8(a4)
    8000144c:	eb0c                	sd	a1,16(a4)
    8000144e:	ef10                	sd	a2,24(a4)
    80001450:	02078793          	add	a5,a5,32
    80001454:	02070713          	add	a4,a4,32
    80001458:	fed792e3          	bne	a5,a3,8000143c <fork+0x56>
  np->trapframe->a0 = 0;
    8000145c:	0589b783          	ld	a5,88(s3)
    80001460:	0607b823          	sd	zero,112(a5)
  for(i = 0; i < NOFILE; i++)
    80001464:	0d0a8493          	add	s1,s5,208
    80001468:	0d098913          	add	s2,s3,208
    8000146c:	150a8a13          	add	s4,s5,336
    80001470:	a00d                	j	80001492 <fork+0xac>
    freeproc(np);
    80001472:	854e                	mv	a0,s3
    80001474:	00000097          	auipc	ra,0x0
    80001478:	d6e080e7          	jalr	-658(ra) # 800011e2 <freeproc>
    release(&np->lock);
    8000147c:	854e                	mv	a0,s3
    8000147e:	00005097          	auipc	ra,0x5
    80001482:	034080e7          	jalr	52(ra) # 800064b2 <release>
    return -1;
    80001486:	597d                	li	s2,-1
    80001488:	a079                	j	80001516 <fork+0x130>
  for(i = 0; i < NOFILE; i++)
    8000148a:	04a1                	add	s1,s1,8
    8000148c:	0921                	add	s2,s2,8
    8000148e:	01448b63          	beq	s1,s4,800014a4 <fork+0xbe>
    if(p->ofile[i])
    80001492:	6088                	ld	a0,0(s1)
    80001494:	d97d                	beqz	a0,8000148a <fork+0xa4>
      np->ofile[i] = filedup(p->ofile[i]);
    80001496:	00002097          	auipc	ra,0x2
    8000149a:	7ee080e7          	jalr	2030(ra) # 80003c84 <filedup>
    8000149e:	00a93023          	sd	a0,0(s2)
    800014a2:	b7e5                	j	8000148a <fork+0xa4>
  np->cwd = idup(p->cwd);
    800014a4:	150ab503          	ld	a0,336(s5)
    800014a8:	00002097          	auipc	ra,0x2
    800014ac:	986080e7          	jalr	-1658(ra) # 80002e2e <idup>
    800014b0:	14a9b823          	sd	a0,336(s3)
  safestrcpy(np->name, p->name, sizeof(p->name));
    800014b4:	4641                	li	a2,16
    800014b6:	158a8593          	add	a1,s5,344
    800014ba:	15898513          	add	a0,s3,344
    800014be:	fffff097          	auipc	ra,0xfffff
    800014c2:	f92080e7          	jalr	-110(ra) # 80000450 <safestrcpy>
  pid = np->pid;
    800014c6:	0309a903          	lw	s2,48(s3)
  np->tmask = p->tmask;
    800014ca:	168aa783          	lw	a5,360(s5)
    800014ce:	16f9a423          	sw	a5,360(s3)
  release(&np->lock);
    800014d2:	854e                	mv	a0,s3
    800014d4:	00005097          	auipc	ra,0x5
    800014d8:	fde080e7          	jalr	-34(ra) # 800064b2 <release>
  acquire(&wait_lock);
    800014dc:	00027497          	auipc	s1,0x27
    800014e0:	60448493          	add	s1,s1,1540 # 80028ae0 <wait_lock>
    800014e4:	8526                	mv	a0,s1
    800014e6:	00005097          	auipc	ra,0x5
    800014ea:	f18080e7          	jalr	-232(ra) # 800063fe <acquire>
  np->parent = p;
    800014ee:	0359bc23          	sd	s5,56(s3)
  release(&wait_lock);
    800014f2:	8526                	mv	a0,s1
    800014f4:	00005097          	auipc	ra,0x5
    800014f8:	fbe080e7          	jalr	-66(ra) # 800064b2 <release>
  acquire(&np->lock);
    800014fc:	854e                	mv	a0,s3
    800014fe:	00005097          	auipc	ra,0x5
    80001502:	f00080e7          	jalr	-256(ra) # 800063fe <acquire>
  np->state = RUNNABLE;
    80001506:	478d                	li	a5,3
    80001508:	00f9ac23          	sw	a5,24(s3)
  release(&np->lock);
    8000150c:	854e                	mv	a0,s3
    8000150e:	00005097          	auipc	ra,0x5
    80001512:	fa4080e7          	jalr	-92(ra) # 800064b2 <release>
}
    80001516:	854a                	mv	a0,s2
    80001518:	70e2                	ld	ra,56(sp)
    8000151a:	7442                	ld	s0,48(sp)
    8000151c:	74a2                	ld	s1,40(sp)
    8000151e:	7902                	ld	s2,32(sp)
    80001520:	69e2                	ld	s3,24(sp)
    80001522:	6a42                	ld	s4,16(sp)
    80001524:	6aa2                	ld	s5,8(sp)
    80001526:	6121                	add	sp,sp,64
    80001528:	8082                	ret
    return -1;
    8000152a:	597d                	li	s2,-1
    8000152c:	b7ed                	j	80001516 <fork+0x130>

000000008000152e <scheduler>:
{
    8000152e:	7139                	add	sp,sp,-64
    80001530:	fc06                	sd	ra,56(sp)
    80001532:	f822                	sd	s0,48(sp)
    80001534:	f426                	sd	s1,40(sp)
    80001536:	f04a                	sd	s2,32(sp)
    80001538:	ec4e                	sd	s3,24(sp)
    8000153a:	e852                	sd	s4,16(sp)
    8000153c:	e456                	sd	s5,8(sp)
    8000153e:	e05a                	sd	s6,0(sp)
    80001540:	0080                	add	s0,sp,64
    80001542:	8792                	mv	a5,tp
  int id = r_tp();
    80001544:	2781                	sext.w	a5,a5
  c->proc = 0;
    80001546:	00779a93          	sll	s5,a5,0x7
    8000154a:	00027717          	auipc	a4,0x27
    8000154e:	57e70713          	add	a4,a4,1406 # 80028ac8 <pid_lock>
    80001552:	9756                	add	a4,a4,s5
    80001554:	02073823          	sd	zero,48(a4)
        swtch(&c->context, &p->context);
    80001558:	00027717          	auipc	a4,0x27
    8000155c:	5a870713          	add	a4,a4,1448 # 80028b00 <cpus+0x8>
    80001560:	9aba                	add	s5,s5,a4
      if(p->state == RUNNABLE) {
    80001562:	498d                	li	s3,3
        p->state = RUNNING;
    80001564:	4b11                	li	s6,4
        c->proc = p;
    80001566:	079e                	sll	a5,a5,0x7
    80001568:	00027a17          	auipc	s4,0x27
    8000156c:	560a0a13          	add	s4,s4,1376 # 80028ac8 <pid_lock>
    80001570:	9a3e                	add	s4,s4,a5
    for(p = proc; p < &proc[NPROC]; p++) {
    80001572:	0002d917          	auipc	s2,0x2d
    80001576:	58690913          	add	s2,s2,1414 # 8002eaf8 <tickslock>
  asm volatile("csrr %0, sstatus" : "=r" (x) );
    8000157a:	100027f3          	csrr	a5,sstatus
  w_sstatus(r_sstatus() | SSTATUS_SIE);
    8000157e:	0027e793          	or	a5,a5,2
  asm volatile("csrw sstatus, %0" : : "r" (x));
    80001582:	10079073          	csrw	sstatus,a5
    80001586:	00028497          	auipc	s1,0x28
    8000158a:	97248493          	add	s1,s1,-1678 # 80028ef8 <proc>
    8000158e:	a811                	j	800015a2 <scheduler+0x74>
      release(&p->lock);
    80001590:	8526                	mv	a0,s1
    80001592:	00005097          	auipc	ra,0x5
    80001596:	f20080e7          	jalr	-224(ra) # 800064b2 <release>
    for(p = proc; p < &proc[NPROC]; p++) {
    8000159a:	17048493          	add	s1,s1,368
    8000159e:	fd248ee3          	beq	s1,s2,8000157a <scheduler+0x4c>
      acquire(&p->lock);
    800015a2:	8526                	mv	a0,s1
    800015a4:	00005097          	auipc	ra,0x5
    800015a8:	e5a080e7          	jalr	-422(ra) # 800063fe <acquire>
      if(p->state == RUNNABLE) {
    800015ac:	4c9c                	lw	a5,24(s1)
    800015ae:	ff3791e3          	bne	a5,s3,80001590 <scheduler+0x62>
        p->state = RUNNING;
    800015b2:	0164ac23          	sw	s6,24(s1)
        c->proc = p;
    800015b6:	029a3823          	sd	s1,48(s4)
        swtch(&c->context, &p->context);
    800015ba:	06048593          	add	a1,s1,96
    800015be:	8556                	mv	a0,s5
    800015c0:	00000097          	auipc	ra,0x0
    800015c4:	6a6080e7          	jalr	1702(ra) # 80001c66 <swtch>
        c->proc = 0;
    800015c8:	020a3823          	sd	zero,48(s4)
    800015cc:	b7d1                	j	80001590 <scheduler+0x62>

00000000800015ce <sched>:
{
    800015ce:	7179                	add	sp,sp,-48
    800015d0:	f406                	sd	ra,40(sp)
    800015d2:	f022                	sd	s0,32(sp)
    800015d4:	ec26                	sd	s1,24(sp)
    800015d6:	e84a                	sd	s2,16(sp)
    800015d8:	e44e                	sd	s3,8(sp)
    800015da:	1800                	add	s0,sp,48
  struct proc *p = myproc();
    800015dc:	00000097          	auipc	ra,0x0
    800015e0:	a50080e7          	jalr	-1456(ra) # 8000102c <myproc>
    800015e4:	84aa                	mv	s1,a0
  if(!holding(&p->lock))
    800015e6:	00005097          	auipc	ra,0x5
    800015ea:	d9e080e7          	jalr	-610(ra) # 80006384 <holding>
    800015ee:	c93d                	beqz	a0,80001664 <sched+0x96>
  asm volatile("mv %0, tp" : "=r" (x) );
    800015f0:	8792                	mv	a5,tp
  if(mycpu()->noff != 1)
    800015f2:	2781                	sext.w	a5,a5
    800015f4:	079e                	sll	a5,a5,0x7
    800015f6:	00027717          	auipc	a4,0x27
    800015fa:	4d270713          	add	a4,a4,1234 # 80028ac8 <pid_lock>
    800015fe:	97ba                	add	a5,a5,a4
    80001600:	0a87a703          	lw	a4,168(a5)
    80001604:	4785                	li	a5,1
    80001606:	06f71763          	bne	a4,a5,80001674 <sched+0xa6>
  if(p->state == RUNNING)
    8000160a:	4c98                	lw	a4,24(s1)
    8000160c:	4791                	li	a5,4
    8000160e:	06f70b63          	beq	a4,a5,80001684 <sched+0xb6>
  asm volatile("csrr %0, sstatus" : "=r" (x) );
    80001612:	100027f3          	csrr	a5,sstatus
  return (x & SSTATUS_SIE) != 0;
    80001616:	8b89                	and	a5,a5,2
  if(intr_get())
    80001618:	efb5                	bnez	a5,80001694 <sched+0xc6>
  asm volatile("mv %0, tp" : "=r" (x) );
    8000161a:	8792                	mv	a5,tp
  intena = mycpu()->intena;
    8000161c:	00027917          	auipc	s2,0x27
    80001620:	4ac90913          	add	s2,s2,1196 # 80028ac8 <pid_lock>
    80001624:	2781                	sext.w	a5,a5
    80001626:	079e                	sll	a5,a5,0x7
    80001628:	97ca                	add	a5,a5,s2
    8000162a:	0ac7a983          	lw	s3,172(a5)
    8000162e:	8792                	mv	a5,tp
  swtch(&p->context, &mycpu()->context);
    80001630:	2781                	sext.w	a5,a5
    80001632:	079e                	sll	a5,a5,0x7
    80001634:	00027597          	auipc	a1,0x27
    80001638:	4cc58593          	add	a1,a1,1228 # 80028b00 <cpus+0x8>
    8000163c:	95be                	add	a1,a1,a5
    8000163e:	06048513          	add	a0,s1,96
    80001642:	00000097          	auipc	ra,0x0
    80001646:	624080e7          	jalr	1572(ra) # 80001c66 <swtch>
    8000164a:	8792                	mv	a5,tp
  mycpu()->intena = intena;
    8000164c:	2781                	sext.w	a5,a5
    8000164e:	079e                	sll	a5,a5,0x7
    80001650:	993e                	add	s2,s2,a5
    80001652:	0b392623          	sw	s3,172(s2)
}
    80001656:	70a2                	ld	ra,40(sp)
    80001658:	7402                	ld	s0,32(sp)
    8000165a:	64e2                	ld	s1,24(sp)
    8000165c:	6942                	ld	s2,16(sp)
    8000165e:	69a2                	ld	s3,8(sp)
    80001660:	6145                	add	sp,sp,48
    80001662:	8082                	ret
    panic("sched p->lock");
    80001664:	00007517          	auipc	a0,0x7
    80001668:	b7450513          	add	a0,a0,-1164 # 800081d8 <etext+0x1d8>
    8000166c:	00005097          	auipc	ra,0x5
    80001670:	85a080e7          	jalr	-1958(ra) # 80005ec6 <panic>
    panic("sched locks");
    80001674:	00007517          	auipc	a0,0x7
    80001678:	b7450513          	add	a0,a0,-1164 # 800081e8 <etext+0x1e8>
    8000167c:	00005097          	auipc	ra,0x5
    80001680:	84a080e7          	jalr	-1974(ra) # 80005ec6 <panic>
    panic("sched running");
    80001684:	00007517          	auipc	a0,0x7
    80001688:	b7450513          	add	a0,a0,-1164 # 800081f8 <etext+0x1f8>
    8000168c:	00005097          	auipc	ra,0x5
    80001690:	83a080e7          	jalr	-1990(ra) # 80005ec6 <panic>
    panic("sched interruptible");
    80001694:	00007517          	auipc	a0,0x7
    80001698:	b7450513          	add	a0,a0,-1164 # 80008208 <etext+0x208>
    8000169c:	00005097          	auipc	ra,0x5
    800016a0:	82a080e7          	jalr	-2006(ra) # 80005ec6 <panic>

00000000800016a4 <yield>:
{
    800016a4:	1101                	add	sp,sp,-32
    800016a6:	ec06                	sd	ra,24(sp)
    800016a8:	e822                	sd	s0,16(sp)
    800016aa:	e426                	sd	s1,8(sp)
    800016ac:	1000                	add	s0,sp,32
  struct proc *p = myproc();
    800016ae:	00000097          	auipc	ra,0x0
    800016b2:	97e080e7          	jalr	-1666(ra) # 8000102c <myproc>
    800016b6:	84aa                	mv	s1,a0
  acquire(&p->lock);
    800016b8:	00005097          	auipc	ra,0x5
    800016bc:	d46080e7          	jalr	-698(ra) # 800063fe <acquire>
  p->state = RUNNABLE;
    800016c0:	478d                	li	a5,3
    800016c2:	cc9c                	sw	a5,24(s1)
  sched();
    800016c4:	00000097          	auipc	ra,0x0
    800016c8:	f0a080e7          	jalr	-246(ra) # 800015ce <sched>
  release(&p->lock);
    800016cc:	8526                	mv	a0,s1
    800016ce:	00005097          	auipc	ra,0x5
    800016d2:	de4080e7          	jalr	-540(ra) # 800064b2 <release>
}
    800016d6:	60e2                	ld	ra,24(sp)
    800016d8:	6442                	ld	s0,16(sp)
    800016da:	64a2                	ld	s1,8(sp)
    800016dc:	6105                	add	sp,sp,32
    800016de:	8082                	ret

00000000800016e0 <sleep>:

/* Atomically release lock and sleep on chan. */
/* Reacquires lock when awakened. */
void
sleep(void *chan, struct spinlock *lk)
{
    800016e0:	7179                	add	sp,sp,-48
    800016e2:	f406                	sd	ra,40(sp)
    800016e4:	f022                	sd	s0,32(sp)
    800016e6:	ec26                	sd	s1,24(sp)
    800016e8:	e84a                	sd	s2,16(sp)
    800016ea:	e44e                	sd	s3,8(sp)
    800016ec:	1800                	add	s0,sp,48
    800016ee:	89aa                	mv	s3,a0
    800016f0:	892e                	mv	s2,a1
  struct proc *p = myproc();
    800016f2:	00000097          	auipc	ra,0x0
    800016f6:	93a080e7          	jalr	-1734(ra) # 8000102c <myproc>
    800016fa:	84aa                	mv	s1,a0
  /* Once we hold p->lock, we can be */
  /* guaranteed that we won't miss any wakeup */
  /* (wakeup locks p->lock), */
  /* so it's okay to release lk. */

  acquire(&p->lock);  /*DOC: sleeplock1 */
    800016fc:	00005097          	auipc	ra,0x5
    80001700:	d02080e7          	jalr	-766(ra) # 800063fe <acquire>
  release(lk);
    80001704:	854a                	mv	a0,s2
    80001706:	00005097          	auipc	ra,0x5
    8000170a:	dac080e7          	jalr	-596(ra) # 800064b2 <release>

  /* Go to sleep. */
  p->chan = chan;
    8000170e:	0334b023          	sd	s3,32(s1)
  p->state = SLEEPING;
    80001712:	4789                	li	a5,2
    80001714:	cc9c                	sw	a5,24(s1)

  sched();
    80001716:	00000097          	auipc	ra,0x0
    8000171a:	eb8080e7          	jalr	-328(ra) # 800015ce <sched>

  /* Tidy up. */
  p->chan = 0;
    8000171e:	0204b023          	sd	zero,32(s1)

  /* Reacquire original lock. */
  release(&p->lock);
    80001722:	8526                	mv	a0,s1
    80001724:	00005097          	auipc	ra,0x5
    80001728:	d8e080e7          	jalr	-626(ra) # 800064b2 <release>
  acquire(lk);
    8000172c:	854a                	mv	a0,s2
    8000172e:	00005097          	auipc	ra,0x5
    80001732:	cd0080e7          	jalr	-816(ra) # 800063fe <acquire>
}
    80001736:	70a2                	ld	ra,40(sp)
    80001738:	7402                	ld	s0,32(sp)
    8000173a:	64e2                	ld	s1,24(sp)
    8000173c:	6942                	ld	s2,16(sp)
    8000173e:	69a2                	ld	s3,8(sp)
    80001740:	6145                	add	sp,sp,48
    80001742:	8082                	ret

0000000080001744 <wakeup>:

/* Wake up all processes sleeping on chan. */
/* Must be called without any p->lock. */
void
wakeup(void *chan)
{
    80001744:	7139                	add	sp,sp,-64
    80001746:	fc06                	sd	ra,56(sp)
    80001748:	f822                	sd	s0,48(sp)
    8000174a:	f426                	sd	s1,40(sp)
    8000174c:	f04a                	sd	s2,32(sp)
    8000174e:	ec4e                	sd	s3,24(sp)
    80001750:	e852                	sd	s4,16(sp)
    80001752:	e456                	sd	s5,8(sp)
    80001754:	0080                	add	s0,sp,64
    80001756:	8a2a                	mv	s4,a0
  struct proc *p;

  for(p = proc; p < &proc[NPROC]; p++) {
    80001758:	00027497          	auipc	s1,0x27
    8000175c:	7a048493          	add	s1,s1,1952 # 80028ef8 <proc>
    if(p != myproc()){
      acquire(&p->lock);
      if(p->state == SLEEPING && p->chan == chan) {
    80001760:	4989                	li	s3,2
        p->state = RUNNABLE;
    80001762:	4a8d                	li	s5,3
  for(p = proc; p < &proc[NPROC]; p++) {
    80001764:	0002d917          	auipc	s2,0x2d
    80001768:	39490913          	add	s2,s2,916 # 8002eaf8 <tickslock>
    8000176c:	a811                	j	80001780 <wakeup+0x3c>
      }
      release(&p->lock);
    8000176e:	8526                	mv	a0,s1
    80001770:	00005097          	auipc	ra,0x5
    80001774:	d42080e7          	jalr	-702(ra) # 800064b2 <release>
  for(p = proc; p < &proc[NPROC]; p++) {
    80001778:	17048493          	add	s1,s1,368
    8000177c:	03248663          	beq	s1,s2,800017a8 <wakeup+0x64>
    if(p != myproc()){
    80001780:	00000097          	auipc	ra,0x0
    80001784:	8ac080e7          	jalr	-1876(ra) # 8000102c <myproc>
    80001788:	fea488e3          	beq	s1,a0,80001778 <wakeup+0x34>
      acquire(&p->lock);
    8000178c:	8526                	mv	a0,s1
    8000178e:	00005097          	auipc	ra,0x5
    80001792:	c70080e7          	jalr	-912(ra) # 800063fe <acquire>
      if(p->state == SLEEPING && p->chan == chan) {
    80001796:	4c9c                	lw	a5,24(s1)
    80001798:	fd379be3          	bne	a5,s3,8000176e <wakeup+0x2a>
    8000179c:	709c                	ld	a5,32(s1)
    8000179e:	fd4798e3          	bne	a5,s4,8000176e <wakeup+0x2a>
        p->state = RUNNABLE;
    800017a2:	0154ac23          	sw	s5,24(s1)
    800017a6:	b7e1                	j	8000176e <wakeup+0x2a>
    }
  }
}
    800017a8:	70e2                	ld	ra,56(sp)
    800017aa:	7442                	ld	s0,48(sp)
    800017ac:	74a2                	ld	s1,40(sp)
    800017ae:	7902                	ld	s2,32(sp)
    800017b0:	69e2                	ld	s3,24(sp)
    800017b2:	6a42                	ld	s4,16(sp)
    800017b4:	6aa2                	ld	s5,8(sp)
    800017b6:	6121                	add	sp,sp,64
    800017b8:	8082                	ret

00000000800017ba <reparent>:
{
    800017ba:	7179                	add	sp,sp,-48
    800017bc:	f406                	sd	ra,40(sp)
    800017be:	f022                	sd	s0,32(sp)
    800017c0:	ec26                	sd	s1,24(sp)
    800017c2:	e84a                	sd	s2,16(sp)
    800017c4:	e44e                	sd	s3,8(sp)
    800017c6:	e052                	sd	s4,0(sp)
    800017c8:	1800                	add	s0,sp,48
    800017ca:	892a                	mv	s2,a0
  for(pp = proc; pp < &proc[NPROC]; pp++){
    800017cc:	00027497          	auipc	s1,0x27
    800017d0:	72c48493          	add	s1,s1,1836 # 80028ef8 <proc>
      pp->parent = initproc;
    800017d4:	00007a17          	auipc	s4,0x7
    800017d8:	2aca0a13          	add	s4,s4,684 # 80008a80 <initproc>
  for(pp = proc; pp < &proc[NPROC]; pp++){
    800017dc:	0002d997          	auipc	s3,0x2d
    800017e0:	31c98993          	add	s3,s3,796 # 8002eaf8 <tickslock>
    800017e4:	a029                	j	800017ee <reparent+0x34>
    800017e6:	17048493          	add	s1,s1,368
    800017ea:	01348d63          	beq	s1,s3,80001804 <reparent+0x4a>
    if(pp->parent == p){
    800017ee:	7c9c                	ld	a5,56(s1)
    800017f0:	ff279be3          	bne	a5,s2,800017e6 <reparent+0x2c>
      pp->parent = initproc;
    800017f4:	000a3503          	ld	a0,0(s4)
    800017f8:	fc88                	sd	a0,56(s1)
      wakeup(initproc);
    800017fa:	00000097          	auipc	ra,0x0
    800017fe:	f4a080e7          	jalr	-182(ra) # 80001744 <wakeup>
    80001802:	b7d5                	j	800017e6 <reparent+0x2c>
}
    80001804:	70a2                	ld	ra,40(sp)
    80001806:	7402                	ld	s0,32(sp)
    80001808:	64e2                	ld	s1,24(sp)
    8000180a:	6942                	ld	s2,16(sp)
    8000180c:	69a2                	ld	s3,8(sp)
    8000180e:	6a02                	ld	s4,0(sp)
    80001810:	6145                	add	sp,sp,48
    80001812:	8082                	ret

0000000080001814 <exit>:
{
    80001814:	7179                	add	sp,sp,-48
    80001816:	f406                	sd	ra,40(sp)
    80001818:	f022                	sd	s0,32(sp)
    8000181a:	ec26                	sd	s1,24(sp)
    8000181c:	e84a                	sd	s2,16(sp)
    8000181e:	e44e                	sd	s3,8(sp)
    80001820:	e052                	sd	s4,0(sp)
    80001822:	1800                	add	s0,sp,48
    80001824:	8a2a                	mv	s4,a0
  struct proc *p = myproc();
    80001826:	00000097          	auipc	ra,0x0
    8000182a:	806080e7          	jalr	-2042(ra) # 8000102c <myproc>
    8000182e:	89aa                	mv	s3,a0
  if(p == initproc)
    80001830:	00007797          	auipc	a5,0x7
    80001834:	2507b783          	ld	a5,592(a5) # 80008a80 <initproc>
    80001838:	0d050493          	add	s1,a0,208
    8000183c:	15050913          	add	s2,a0,336
    80001840:	02a79363          	bne	a5,a0,80001866 <exit+0x52>
    panic("init exiting");
    80001844:	00007517          	auipc	a0,0x7
    80001848:	9dc50513          	add	a0,a0,-1572 # 80008220 <etext+0x220>
    8000184c:	00004097          	auipc	ra,0x4
    80001850:	67a080e7          	jalr	1658(ra) # 80005ec6 <panic>
      fileclose(f);
    80001854:	00002097          	auipc	ra,0x2
    80001858:	482080e7          	jalr	1154(ra) # 80003cd6 <fileclose>
      p->ofile[fd] = 0;
    8000185c:	0004b023          	sd	zero,0(s1)
  for(int fd = 0; fd < NOFILE; fd++){
    80001860:	04a1                	add	s1,s1,8
    80001862:	01248563          	beq	s1,s2,8000186c <exit+0x58>
    if(p->ofile[fd]){
    80001866:	6088                	ld	a0,0(s1)
    80001868:	f575                	bnez	a0,80001854 <exit+0x40>
    8000186a:	bfdd                	j	80001860 <exit+0x4c>
  begin_op();
    8000186c:	00002097          	auipc	ra,0x2
    80001870:	fa6080e7          	jalr	-90(ra) # 80003812 <begin_op>
  iput(p->cwd);
    80001874:	1509b503          	ld	a0,336(s3)
    80001878:	00001097          	auipc	ra,0x1
    8000187c:	7ae080e7          	jalr	1966(ra) # 80003026 <iput>
  end_op();
    80001880:	00002097          	auipc	ra,0x2
    80001884:	00c080e7          	jalr	12(ra) # 8000388c <end_op>
  p->cwd = 0;
    80001888:	1409b823          	sd	zero,336(s3)
  acquire(&wait_lock);
    8000188c:	00027497          	auipc	s1,0x27
    80001890:	25448493          	add	s1,s1,596 # 80028ae0 <wait_lock>
    80001894:	8526                	mv	a0,s1
    80001896:	00005097          	auipc	ra,0x5
    8000189a:	b68080e7          	jalr	-1176(ra) # 800063fe <acquire>
  reparent(p);
    8000189e:	854e                	mv	a0,s3
    800018a0:	00000097          	auipc	ra,0x0
    800018a4:	f1a080e7          	jalr	-230(ra) # 800017ba <reparent>
  wakeup(p->parent);
    800018a8:	0389b503          	ld	a0,56(s3)
    800018ac:	00000097          	auipc	ra,0x0
    800018b0:	e98080e7          	jalr	-360(ra) # 80001744 <wakeup>
  acquire(&p->lock);
    800018b4:	854e                	mv	a0,s3
    800018b6:	00005097          	auipc	ra,0x5
    800018ba:	b48080e7          	jalr	-1208(ra) # 800063fe <acquire>
  p->xstate = status;
    800018be:	0349a623          	sw	s4,44(s3)
  p->state = ZOMBIE;
    800018c2:	4795                	li	a5,5
    800018c4:	00f9ac23          	sw	a5,24(s3)
  release(&wait_lock);
    800018c8:	8526                	mv	a0,s1
    800018ca:	00005097          	auipc	ra,0x5
    800018ce:	be8080e7          	jalr	-1048(ra) # 800064b2 <release>
  sched();
    800018d2:	00000097          	auipc	ra,0x0
    800018d6:	cfc080e7          	jalr	-772(ra) # 800015ce <sched>
  panic("zombie exit");
    800018da:	00007517          	auipc	a0,0x7
    800018de:	95650513          	add	a0,a0,-1706 # 80008230 <etext+0x230>
    800018e2:	00004097          	auipc	ra,0x4
    800018e6:	5e4080e7          	jalr	1508(ra) # 80005ec6 <panic>

00000000800018ea <kill>:
/* Kill the process with the given pid. */
/* The victim won't exit until it tries to return */
/* to user space (see usertrap() in trap.c). */
int
kill(int pid)
{
    800018ea:	7179                	add	sp,sp,-48
    800018ec:	f406                	sd	ra,40(sp)
    800018ee:	f022                	sd	s0,32(sp)
    800018f0:	ec26                	sd	s1,24(sp)
    800018f2:	e84a                	sd	s2,16(sp)
    800018f4:	e44e                	sd	s3,8(sp)
    800018f6:	1800                	add	s0,sp,48
    800018f8:	892a                	mv	s2,a0
  struct proc *p;

  for(p = proc; p < &proc[NPROC]; p++){
    800018fa:	00027497          	auipc	s1,0x27
    800018fe:	5fe48493          	add	s1,s1,1534 # 80028ef8 <proc>
    80001902:	0002d997          	auipc	s3,0x2d
    80001906:	1f698993          	add	s3,s3,502 # 8002eaf8 <tickslock>
    acquire(&p->lock);
    8000190a:	8526                	mv	a0,s1
    8000190c:	00005097          	auipc	ra,0x5
    80001910:	af2080e7          	jalr	-1294(ra) # 800063fe <acquire>
    if(p->pid == pid){
    80001914:	589c                	lw	a5,48(s1)
    80001916:	01278d63          	beq	a5,s2,80001930 <kill+0x46>
        p->state = RUNNABLE;
      }
      release(&p->lock);
      return 0;
    }
    release(&p->lock);
    8000191a:	8526                	mv	a0,s1
    8000191c:	00005097          	auipc	ra,0x5
    80001920:	b96080e7          	jalr	-1130(ra) # 800064b2 <release>
  for(p = proc; p < &proc[NPROC]; p++){
    80001924:	17048493          	add	s1,s1,368
    80001928:	ff3491e3          	bne	s1,s3,8000190a <kill+0x20>
  }
  return -1;
    8000192c:	557d                	li	a0,-1
    8000192e:	a829                	j	80001948 <kill+0x5e>
      p->killed = 1;
    80001930:	4785                	li	a5,1
    80001932:	d49c                	sw	a5,40(s1)
      if(p->state == SLEEPING){
    80001934:	4c98                	lw	a4,24(s1)
    80001936:	4789                	li	a5,2
    80001938:	00f70f63          	beq	a4,a5,80001956 <kill+0x6c>
      release(&p->lock);
    8000193c:	8526                	mv	a0,s1
    8000193e:	00005097          	auipc	ra,0x5
    80001942:	b74080e7          	jalr	-1164(ra) # 800064b2 <release>
      return 0;
    80001946:	4501                	li	a0,0
}
    80001948:	70a2                	ld	ra,40(sp)
    8000194a:	7402                	ld	s0,32(sp)
    8000194c:	64e2                	ld	s1,24(sp)
    8000194e:	6942                	ld	s2,16(sp)
    80001950:	69a2                	ld	s3,8(sp)
    80001952:	6145                	add	sp,sp,48
    80001954:	8082                	ret
        p->state = RUNNABLE;
    80001956:	478d                	li	a5,3
    80001958:	cc9c                	sw	a5,24(s1)
    8000195a:	b7cd                	j	8000193c <kill+0x52>

000000008000195c <setkilled>:

void
setkilled(struct proc *p)
{
    8000195c:	1101                	add	sp,sp,-32
    8000195e:	ec06                	sd	ra,24(sp)
    80001960:	e822                	sd	s0,16(sp)
    80001962:	e426                	sd	s1,8(sp)
    80001964:	1000                	add	s0,sp,32
    80001966:	84aa                	mv	s1,a0
  acquire(&p->lock);
    80001968:	00005097          	auipc	ra,0x5
    8000196c:	a96080e7          	jalr	-1386(ra) # 800063fe <acquire>
  p->killed = 1;
    80001970:	4785                	li	a5,1
    80001972:	d49c                	sw	a5,40(s1)
  release(&p->lock);
    80001974:	8526                	mv	a0,s1
    80001976:	00005097          	auipc	ra,0x5
    8000197a:	b3c080e7          	jalr	-1220(ra) # 800064b2 <release>
}
    8000197e:	60e2                	ld	ra,24(sp)
    80001980:	6442                	ld	s0,16(sp)
    80001982:	64a2                	ld	s1,8(sp)
    80001984:	6105                	add	sp,sp,32
    80001986:	8082                	ret

0000000080001988 <killed>:

int
killed(struct proc *p)
{
    80001988:	1101                	add	sp,sp,-32
    8000198a:	ec06                	sd	ra,24(sp)
    8000198c:	e822                	sd	s0,16(sp)
    8000198e:	e426                	sd	s1,8(sp)
    80001990:	e04a                	sd	s2,0(sp)
    80001992:	1000                	add	s0,sp,32
    80001994:	84aa                	mv	s1,a0
  int k;
  
  acquire(&p->lock);
    80001996:	00005097          	auipc	ra,0x5
    8000199a:	a68080e7          	jalr	-1432(ra) # 800063fe <acquire>
  k = p->killed;
    8000199e:	0284a903          	lw	s2,40(s1)
  release(&p->lock);
    800019a2:	8526                	mv	a0,s1
    800019a4:	00005097          	auipc	ra,0x5
    800019a8:	b0e080e7          	jalr	-1266(ra) # 800064b2 <release>
  return k;
}
    800019ac:	854a                	mv	a0,s2
    800019ae:	60e2                	ld	ra,24(sp)
    800019b0:	6442                	ld	s0,16(sp)
    800019b2:	64a2                	ld	s1,8(sp)
    800019b4:	6902                	ld	s2,0(sp)
    800019b6:	6105                	add	sp,sp,32
    800019b8:	8082                	ret

00000000800019ba <wait>:
{
    800019ba:	715d                	add	sp,sp,-80
    800019bc:	e486                	sd	ra,72(sp)
    800019be:	e0a2                	sd	s0,64(sp)
    800019c0:	fc26                	sd	s1,56(sp)
    800019c2:	f84a                	sd	s2,48(sp)
    800019c4:	f44e                	sd	s3,40(sp)
    800019c6:	f052                	sd	s4,32(sp)
    800019c8:	ec56                	sd	s5,24(sp)
    800019ca:	e85a                	sd	s6,16(sp)
    800019cc:	e45e                	sd	s7,8(sp)
    800019ce:	e062                	sd	s8,0(sp)
    800019d0:	0880                	add	s0,sp,80
    800019d2:	8b2a                	mv	s6,a0
  struct proc *p = myproc();
    800019d4:	fffff097          	auipc	ra,0xfffff
    800019d8:	658080e7          	jalr	1624(ra) # 8000102c <myproc>
    800019dc:	892a                	mv	s2,a0
  acquire(&wait_lock);
    800019de:	00027517          	auipc	a0,0x27
    800019e2:	10250513          	add	a0,a0,258 # 80028ae0 <wait_lock>
    800019e6:	00005097          	auipc	ra,0x5
    800019ea:	a18080e7          	jalr	-1512(ra) # 800063fe <acquire>
    havekids = 0;
    800019ee:	4b81                	li	s7,0
        if(pp->state == ZOMBIE){
    800019f0:	4a15                	li	s4,5
        havekids = 1;
    800019f2:	4a85                	li	s5,1
    for(pp = proc; pp < &proc[NPROC]; pp++){
    800019f4:	0002d997          	auipc	s3,0x2d
    800019f8:	10498993          	add	s3,s3,260 # 8002eaf8 <tickslock>
    sleep(p, &wait_lock);  /*DOC: wait-sleep */
    800019fc:	00027c17          	auipc	s8,0x27
    80001a00:	0e4c0c13          	add	s8,s8,228 # 80028ae0 <wait_lock>
    80001a04:	a0d1                	j	80001ac8 <wait+0x10e>
          pid = pp->pid;
    80001a06:	0304a983          	lw	s3,48(s1)
          if(addr != 0 && copyout(p->pagetable, addr, (char *)&pp->xstate,
    80001a0a:	000b0e63          	beqz	s6,80001a26 <wait+0x6c>
    80001a0e:	4691                	li	a3,4
    80001a10:	02c48613          	add	a2,s1,44
    80001a14:	85da                	mv	a1,s6
    80001a16:	05093503          	ld	a0,80(s2)
    80001a1a:	fffff097          	auipc	ra,0xfffff
    80001a1e:	29e080e7          	jalr	670(ra) # 80000cb8 <copyout>
    80001a22:	04054163          	bltz	a0,80001a64 <wait+0xaa>
          freeproc(pp);
    80001a26:	8526                	mv	a0,s1
    80001a28:	fffff097          	auipc	ra,0xfffff
    80001a2c:	7ba080e7          	jalr	1978(ra) # 800011e2 <freeproc>
          release(&pp->lock);
    80001a30:	8526                	mv	a0,s1
    80001a32:	00005097          	auipc	ra,0x5
    80001a36:	a80080e7          	jalr	-1408(ra) # 800064b2 <release>
          release(&wait_lock);
    80001a3a:	00027517          	auipc	a0,0x27
    80001a3e:	0a650513          	add	a0,a0,166 # 80028ae0 <wait_lock>
    80001a42:	00005097          	auipc	ra,0x5
    80001a46:	a70080e7          	jalr	-1424(ra) # 800064b2 <release>
}
    80001a4a:	854e                	mv	a0,s3
    80001a4c:	60a6                	ld	ra,72(sp)
    80001a4e:	6406                	ld	s0,64(sp)
    80001a50:	74e2                	ld	s1,56(sp)
    80001a52:	7942                	ld	s2,48(sp)
    80001a54:	79a2                	ld	s3,40(sp)
    80001a56:	7a02                	ld	s4,32(sp)
    80001a58:	6ae2                	ld	s5,24(sp)
    80001a5a:	6b42                	ld	s6,16(sp)
    80001a5c:	6ba2                	ld	s7,8(sp)
    80001a5e:	6c02                	ld	s8,0(sp)
    80001a60:	6161                	add	sp,sp,80
    80001a62:	8082                	ret
            release(&pp->lock);
    80001a64:	8526                	mv	a0,s1
    80001a66:	00005097          	auipc	ra,0x5
    80001a6a:	a4c080e7          	jalr	-1460(ra) # 800064b2 <release>
            release(&wait_lock);
    80001a6e:	00027517          	auipc	a0,0x27
    80001a72:	07250513          	add	a0,a0,114 # 80028ae0 <wait_lock>
    80001a76:	00005097          	auipc	ra,0x5
    80001a7a:	a3c080e7          	jalr	-1476(ra) # 800064b2 <release>
            return -1;
    80001a7e:	59fd                	li	s3,-1
    80001a80:	b7e9                	j	80001a4a <wait+0x90>
    for(pp = proc; pp < &proc[NPROC]; pp++){
    80001a82:	17048493          	add	s1,s1,368
    80001a86:	03348463          	beq	s1,s3,80001aae <wait+0xf4>
      if(pp->parent == p){
    80001a8a:	7c9c                	ld	a5,56(s1)
    80001a8c:	ff279be3          	bne	a5,s2,80001a82 <wait+0xc8>
        acquire(&pp->lock);
    80001a90:	8526                	mv	a0,s1
    80001a92:	00005097          	auipc	ra,0x5
    80001a96:	96c080e7          	jalr	-1684(ra) # 800063fe <acquire>
        if(pp->state == ZOMBIE){
    80001a9a:	4c9c                	lw	a5,24(s1)
    80001a9c:	f74785e3          	beq	a5,s4,80001a06 <wait+0x4c>
        release(&pp->lock);
    80001aa0:	8526                	mv	a0,s1
    80001aa2:	00005097          	auipc	ra,0x5
    80001aa6:	a10080e7          	jalr	-1520(ra) # 800064b2 <release>
        havekids = 1;
    80001aaa:	8756                	mv	a4,s5
    80001aac:	bfd9                	j	80001a82 <wait+0xc8>
    if(!havekids || killed(p)){
    80001aae:	c31d                	beqz	a4,80001ad4 <wait+0x11a>
    80001ab0:	854a                	mv	a0,s2
    80001ab2:	00000097          	auipc	ra,0x0
    80001ab6:	ed6080e7          	jalr	-298(ra) # 80001988 <killed>
    80001aba:	ed09                	bnez	a0,80001ad4 <wait+0x11a>
    sleep(p, &wait_lock);  /*DOC: wait-sleep */
    80001abc:	85e2                	mv	a1,s8
    80001abe:	854a                	mv	a0,s2
    80001ac0:	00000097          	auipc	ra,0x0
    80001ac4:	c20080e7          	jalr	-992(ra) # 800016e0 <sleep>
    havekids = 0;
    80001ac8:	875e                	mv	a4,s7
    for(pp = proc; pp < &proc[NPROC]; pp++){
    80001aca:	00027497          	auipc	s1,0x27
    80001ace:	42e48493          	add	s1,s1,1070 # 80028ef8 <proc>
    80001ad2:	bf65                	j	80001a8a <wait+0xd0>
      release(&wait_lock);
    80001ad4:	00027517          	auipc	a0,0x27
    80001ad8:	00c50513          	add	a0,a0,12 # 80028ae0 <wait_lock>
    80001adc:	00005097          	auipc	ra,0x5
    80001ae0:	9d6080e7          	jalr	-1578(ra) # 800064b2 <release>
      return -1;
    80001ae4:	59fd                	li	s3,-1
    80001ae6:	b795                	j	80001a4a <wait+0x90>

0000000080001ae8 <either_copyout>:
/* Copy to either a user address, or kernel address, */
/* depending on usr_dst. */
/* Returns 0 on success, -1 on error. */
int
either_copyout(int user_dst, uint64 dst, void *src, uint64 len)
{
    80001ae8:	7179                	add	sp,sp,-48
    80001aea:	f406                	sd	ra,40(sp)
    80001aec:	f022                	sd	s0,32(sp)
    80001aee:	ec26                	sd	s1,24(sp)
    80001af0:	e84a                	sd	s2,16(sp)
    80001af2:	e44e                	sd	s3,8(sp)
    80001af4:	e052                	sd	s4,0(sp)
    80001af6:	1800                	add	s0,sp,48
    80001af8:	84aa                	mv	s1,a0
    80001afa:	892e                	mv	s2,a1
    80001afc:	89b2                	mv	s3,a2
    80001afe:	8a36                	mv	s4,a3
  struct proc *p = myproc();
    80001b00:	fffff097          	auipc	ra,0xfffff
    80001b04:	52c080e7          	jalr	1324(ra) # 8000102c <myproc>
  if(user_dst){
    80001b08:	c08d                	beqz	s1,80001b2a <either_copyout+0x42>
    return copyout(p->pagetable, dst, src, len);
    80001b0a:	86d2                	mv	a3,s4
    80001b0c:	864e                	mv	a2,s3
    80001b0e:	85ca                	mv	a1,s2
    80001b10:	6928                	ld	a0,80(a0)
    80001b12:	fffff097          	auipc	ra,0xfffff
    80001b16:	1a6080e7          	jalr	422(ra) # 80000cb8 <copyout>
  } else {
    memmove((char *)dst, src, len);
    return 0;
  }
}
    80001b1a:	70a2                	ld	ra,40(sp)
    80001b1c:	7402                	ld	s0,32(sp)
    80001b1e:	64e2                	ld	s1,24(sp)
    80001b20:	6942                	ld	s2,16(sp)
    80001b22:	69a2                	ld	s3,8(sp)
    80001b24:	6a02                	ld	s4,0(sp)
    80001b26:	6145                	add	sp,sp,48
    80001b28:	8082                	ret
    memmove((char *)dst, src, len);
    80001b2a:	000a061b          	sext.w	a2,s4
    80001b2e:	85ce                	mv	a1,s3
    80001b30:	854a                	mv	a0,s2
    80001b32:	fffff097          	auipc	ra,0xfffff
    80001b36:	832080e7          	jalr	-1998(ra) # 80000364 <memmove>
    return 0;
    80001b3a:	8526                	mv	a0,s1
    80001b3c:	bff9                	j	80001b1a <either_copyout+0x32>

0000000080001b3e <either_copyin>:
/* Copy from either a user address, or kernel address, */
/* depending on usr_src. */
/* Returns 0 on success, -1 on error. */
int
either_copyin(void *dst, int user_src, uint64 src, uint64 len)
{
    80001b3e:	7179                	add	sp,sp,-48
    80001b40:	f406                	sd	ra,40(sp)
    80001b42:	f022                	sd	s0,32(sp)
    80001b44:	ec26                	sd	s1,24(sp)
    80001b46:	e84a                	sd	s2,16(sp)
    80001b48:	e44e                	sd	s3,8(sp)
    80001b4a:	e052                	sd	s4,0(sp)
    80001b4c:	1800                	add	s0,sp,48
    80001b4e:	892a                	mv	s2,a0
    80001b50:	84ae                	mv	s1,a1
    80001b52:	89b2                	mv	s3,a2
    80001b54:	8a36                	mv	s4,a3
  struct proc *p = myproc();
    80001b56:	fffff097          	auipc	ra,0xfffff
    80001b5a:	4d6080e7          	jalr	1238(ra) # 8000102c <myproc>
  if(user_src){
    80001b5e:	c08d                	beqz	s1,80001b80 <either_copyin+0x42>
    return copyin(p->pagetable, dst, src, len);
    80001b60:	86d2                	mv	a3,s4
    80001b62:	864e                	mv	a2,s3
    80001b64:	85ca                	mv	a1,s2
    80001b66:	6928                	ld	a0,80(a0)
    80001b68:	fffff097          	auipc	ra,0xfffff
    80001b6c:	210080e7          	jalr	528(ra) # 80000d78 <copyin>
  } else {
    memmove(dst, (char*)src, len);
    return 0;
  }
}
    80001b70:	70a2                	ld	ra,40(sp)
    80001b72:	7402                	ld	s0,32(sp)
    80001b74:	64e2                	ld	s1,24(sp)
    80001b76:	6942                	ld	s2,16(sp)
    80001b78:	69a2                	ld	s3,8(sp)
    80001b7a:	6a02                	ld	s4,0(sp)
    80001b7c:	6145                	add	sp,sp,48
    80001b7e:	8082                	ret
    memmove(dst, (char*)src, len);
    80001b80:	000a061b          	sext.w	a2,s4
    80001b84:	85ce                	mv	a1,s3
    80001b86:	854a                	mv	a0,s2
    80001b88:	ffffe097          	auipc	ra,0xffffe
    80001b8c:	7dc080e7          	jalr	2012(ra) # 80000364 <memmove>
    return 0;
    80001b90:	8526                	mv	a0,s1
    80001b92:	bff9                	j	80001b70 <either_copyin+0x32>

0000000080001b94 <procdump>:
/* Print a process listing to console.  For debugging. */
/* Runs when user types ^P on console. */
/* No lock to avoid wedging a stuck machine further. */
void
procdump(void)
{
    80001b94:	715d                	add	sp,sp,-80
    80001b96:	e486                	sd	ra,72(sp)
    80001b98:	e0a2                	sd	s0,64(sp)
    80001b9a:	fc26                	sd	s1,56(sp)
    80001b9c:	f84a                	sd	s2,48(sp)
    80001b9e:	f44e                	sd	s3,40(sp)
    80001ba0:	f052                	sd	s4,32(sp)
    80001ba2:	ec56                	sd	s5,24(sp)
    80001ba4:	e85a                	sd	s6,16(sp)
    80001ba6:	e45e                	sd	s7,8(sp)
    80001ba8:	0880                	add	s0,sp,80
  [ZOMBIE]    "zombie"
  };
  struct proc *p;
  char *state;

  printf("\n");
    80001baa:	00006517          	auipc	a0,0x6
    80001bae:	49e50513          	add	a0,a0,1182 # 80008048 <etext+0x48>
    80001bb2:	00004097          	auipc	ra,0x4
    80001bb6:	35e080e7          	jalr	862(ra) # 80005f10 <printf>
  for(p = proc; p < &proc[NPROC]; p++){
    80001bba:	00027497          	auipc	s1,0x27
    80001bbe:	49648493          	add	s1,s1,1174 # 80029050 <proc+0x158>
    80001bc2:	0002d917          	auipc	s2,0x2d
    80001bc6:	08e90913          	add	s2,s2,142 # 8002ec50 <bcache+0x140>
    if(p->state == UNUSED)
      continue;
    if(p->state >= 0 && p->state < NELEM(states) && states[p->state])
    80001bca:	4b15                	li	s6,5
      state = states[p->state];
    else
      state = "???";
    80001bcc:	00006997          	auipc	s3,0x6
    80001bd0:	67498993          	add	s3,s3,1652 # 80008240 <etext+0x240>
    printf("%d %s %s", p->pid, state, p->name);
    80001bd4:	00006a97          	auipc	s5,0x6
    80001bd8:	674a8a93          	add	s5,s5,1652 # 80008248 <etext+0x248>
    printf("\n");
    80001bdc:	00006a17          	auipc	s4,0x6
    80001be0:	46ca0a13          	add	s4,s4,1132 # 80008048 <etext+0x48>
    if(p->state >= 0 && p->state < NELEM(states) && states[p->state])
    80001be4:	00006b97          	auipc	s7,0x6
    80001be8:	6a4b8b93          	add	s7,s7,1700 # 80008288 <states.0>
    80001bec:	a00d                	j	80001c0e <procdump+0x7a>
    printf("%d %s %s", p->pid, state, p->name);
    80001bee:	ed86a583          	lw	a1,-296(a3)
    80001bf2:	8556                	mv	a0,s5
    80001bf4:	00004097          	auipc	ra,0x4
    80001bf8:	31c080e7          	jalr	796(ra) # 80005f10 <printf>
    printf("\n");
    80001bfc:	8552                	mv	a0,s4
    80001bfe:	00004097          	auipc	ra,0x4
    80001c02:	312080e7          	jalr	786(ra) # 80005f10 <printf>
  for(p = proc; p < &proc[NPROC]; p++){
    80001c06:	17048493          	add	s1,s1,368
    80001c0a:	03248263          	beq	s1,s2,80001c2e <procdump+0x9a>
    if(p->state == UNUSED)
    80001c0e:	86a6                	mv	a3,s1
    80001c10:	ec04a783          	lw	a5,-320(s1)
    80001c14:	dbed                	beqz	a5,80001c06 <procdump+0x72>
      state = "???";
    80001c16:	864e                	mv	a2,s3
    if(p->state >= 0 && p->state < NELEM(states) && states[p->state])
    80001c18:	fcfb6be3          	bltu	s6,a5,80001bee <procdump+0x5a>
    80001c1c:	02079713          	sll	a4,a5,0x20
    80001c20:	01d75793          	srl	a5,a4,0x1d
    80001c24:	97de                	add	a5,a5,s7
    80001c26:	6390                	ld	a2,0(a5)
    80001c28:	f279                	bnez	a2,80001bee <procdump+0x5a>
      state = "???";
    80001c2a:	864e                	mv	a2,s3
    80001c2c:	b7c9                	j	80001bee <procdump+0x5a>
  }
}
    80001c2e:	60a6                	ld	ra,72(sp)
    80001c30:	6406                	ld	s0,64(sp)
    80001c32:	74e2                	ld	s1,56(sp)
    80001c34:	7942                	ld	s2,48(sp)
    80001c36:	79a2                	ld	s3,40(sp)
    80001c38:	7a02                	ld	s4,32(sp)
    80001c3a:	6ae2                	ld	s5,24(sp)
    80001c3c:	6b42                	ld	s6,16(sp)
    80001c3e:	6ba2                	ld	s7,8(sp)
    80001c40:	6161                	add	sp,sp,80
    80001c42:	8082                	ret

0000000080001c44 <trace>:
/* Phong Thanh Nguyen (David) - wdz468 - 11310824
 * Woody Morrice - wam553 - 11071060 */

void
trace(int mask)
{
    80001c44:	1101                	add	sp,sp,-32
    80001c46:	ec06                	sd	ra,24(sp)
    80001c48:	e822                	sd	s0,16(sp)
    80001c4a:	e426                	sd	s1,8(sp)
    80001c4c:	1000                	add	s0,sp,32
    80001c4e:	84aa                	mv	s1,a0
  struct proc *p = myproc();
    80001c50:	fffff097          	auipc	ra,0xfffff
    80001c54:	3dc080e7          	jalr	988(ra) # 8000102c <myproc>
  p->tmask = mask;
    80001c58:	16952423          	sw	s1,360(a0)
}
    80001c5c:	60e2                	ld	ra,24(sp)
    80001c5e:	6442                	ld	s0,16(sp)
    80001c60:	64a2                	ld	s1,8(sp)
    80001c62:	6105                	add	sp,sp,32
    80001c64:	8082                	ret

0000000080001c66 <swtch>:
    80001c66:	00153023          	sd	ra,0(a0)
    80001c6a:	00253423          	sd	sp,8(a0)
    80001c6e:	e900                	sd	s0,16(a0)
    80001c70:	ed04                	sd	s1,24(a0)
    80001c72:	03253023          	sd	s2,32(a0)
    80001c76:	03353423          	sd	s3,40(a0)
    80001c7a:	03453823          	sd	s4,48(a0)
    80001c7e:	03553c23          	sd	s5,56(a0)
    80001c82:	05653023          	sd	s6,64(a0)
    80001c86:	05753423          	sd	s7,72(a0)
    80001c8a:	05853823          	sd	s8,80(a0)
    80001c8e:	05953c23          	sd	s9,88(a0)
    80001c92:	07a53023          	sd	s10,96(a0)
    80001c96:	07b53423          	sd	s11,104(a0)
    80001c9a:	0005b083          	ld	ra,0(a1)
    80001c9e:	0085b103          	ld	sp,8(a1)
    80001ca2:	6980                	ld	s0,16(a1)
    80001ca4:	6d84                	ld	s1,24(a1)
    80001ca6:	0205b903          	ld	s2,32(a1)
    80001caa:	0285b983          	ld	s3,40(a1)
    80001cae:	0305ba03          	ld	s4,48(a1)
    80001cb2:	0385ba83          	ld	s5,56(a1)
    80001cb6:	0405bb03          	ld	s6,64(a1)
    80001cba:	0485bb83          	ld	s7,72(a1)
    80001cbe:	0505bc03          	ld	s8,80(a1)
    80001cc2:	0585bc83          	ld	s9,88(a1)
    80001cc6:	0605bd03          	ld	s10,96(a1)
    80001cca:	0685bd83          	ld	s11,104(a1)
    80001cce:	8082                	ret

0000000080001cd0 <trapinit>:

extern int devintr();

void
trapinit(void)
{
    80001cd0:	1141                	add	sp,sp,-16
    80001cd2:	e406                	sd	ra,8(sp)
    80001cd4:	e022                	sd	s0,0(sp)
    80001cd6:	0800                	add	s0,sp,16
  initlock(&tickslock, "time");
    80001cd8:	00006597          	auipc	a1,0x6
    80001cdc:	5e058593          	add	a1,a1,1504 # 800082b8 <states.0+0x30>
    80001ce0:	0002d517          	auipc	a0,0x2d
    80001ce4:	e1850513          	add	a0,a0,-488 # 8002eaf8 <tickslock>
    80001ce8:	00004097          	auipc	ra,0x4
    80001cec:	686080e7          	jalr	1670(ra) # 8000636e <initlock>
}
    80001cf0:	60a2                	ld	ra,8(sp)
    80001cf2:	6402                	ld	s0,0(sp)
    80001cf4:	0141                	add	sp,sp,16
    80001cf6:	8082                	ret

0000000080001cf8 <trapinithart>:

/* set up to take exceptions and traps while in the kernel. */
void
trapinithart(void)
{
    80001cf8:	1141                	add	sp,sp,-16
    80001cfa:	e422                	sd	s0,8(sp)
    80001cfc:	0800                	add	s0,sp,16
  asm volatile("csrw stvec, %0" : : "r" (x));
    80001cfe:	00003797          	auipc	a5,0x3
    80001d02:	60278793          	add	a5,a5,1538 # 80005300 <kernelvec>
    80001d06:	10579073          	csrw	stvec,a5
  w_stvec((uint64)kernelvec);
}
    80001d0a:	6422                	ld	s0,8(sp)
    80001d0c:	0141                	add	sp,sp,16
    80001d0e:	8082                	ret

0000000080001d10 <usertrapret>:
/* */
/* return to user space */
/* */
void
usertrapret(void)
{
    80001d10:	1141                	add	sp,sp,-16
    80001d12:	e406                	sd	ra,8(sp)
    80001d14:	e022                	sd	s0,0(sp)
    80001d16:	0800                	add	s0,sp,16
  struct proc *p = myproc();
    80001d18:	fffff097          	auipc	ra,0xfffff
    80001d1c:	314080e7          	jalr	788(ra) # 8000102c <myproc>
  asm volatile("csrr %0, sstatus" : "=r" (x) );
    80001d20:	100027f3          	csrr	a5,sstatus
  w_sstatus(r_sstatus() & ~SSTATUS_SIE);
    80001d24:	9bf5                	and	a5,a5,-3
  asm volatile("csrw sstatus, %0" : : "r" (x));
    80001d26:	10079073          	csrw	sstatus,a5
  /* kerneltrap() to usertrap(), so turn off interrupts until */
  /* we're back in user space, where usertrap() is correct. */
  intr_off();

  /* send syscalls, interrupts, and exceptions to uservec in trampoline.S */
  uint64 trampoline_uservec = TRAMPOLINE + (uservec - trampoline);
    80001d2a:	00005697          	auipc	a3,0x5
    80001d2e:	2d668693          	add	a3,a3,726 # 80007000 <_trampoline>
    80001d32:	00005717          	auipc	a4,0x5
    80001d36:	2ce70713          	add	a4,a4,718 # 80007000 <_trampoline>
    80001d3a:	8f15                	sub	a4,a4,a3
    80001d3c:	040007b7          	lui	a5,0x4000
    80001d40:	17fd                	add	a5,a5,-1 # 3ffffff <_entry-0x7c000001>
    80001d42:	07b2                	sll	a5,a5,0xc
    80001d44:	973e                	add	a4,a4,a5
  asm volatile("csrw stvec, %0" : : "r" (x));
    80001d46:	10571073          	csrw	stvec,a4
  w_stvec(trampoline_uservec);

  /* set up trapframe values that uservec will need when */
  /* the process next traps into the kernel. */
  p->trapframe->kernel_satp = r_satp();         /* kernel page table */
    80001d4a:	6d38                	ld	a4,88(a0)
  asm volatile("csrr %0, satp" : "=r" (x) );
    80001d4c:	18002673          	csrr	a2,satp
    80001d50:	e310                	sd	a2,0(a4)
  p->trapframe->kernel_sp = p->kstack + PGSIZE; /* process's kernel stack */
    80001d52:	6d30                	ld	a2,88(a0)
    80001d54:	6138                	ld	a4,64(a0)
    80001d56:	6585                	lui	a1,0x1
    80001d58:	972e                	add	a4,a4,a1
    80001d5a:	e618                	sd	a4,8(a2)
  p->trapframe->kernel_trap = (uint64)usertrap;
    80001d5c:	6d38                	ld	a4,88(a0)
    80001d5e:	00000617          	auipc	a2,0x0
    80001d62:	13460613          	add	a2,a2,308 # 80001e92 <usertrap>
    80001d66:	eb10                	sd	a2,16(a4)
  p->trapframe->kernel_hartid = r_tp();         /* hartid for cpuid() */
    80001d68:	6d38                	ld	a4,88(a0)
  asm volatile("mv %0, tp" : "=r" (x) );
    80001d6a:	8612                	mv	a2,tp
    80001d6c:	f310                	sd	a2,32(a4)
  asm volatile("csrr %0, sstatus" : "=r" (x) );
    80001d6e:	10002773          	csrr	a4,sstatus
  /* set up the registers that trampoline.S's sret will use */
  /* to get to user space. */
  
  /* set S Previous Privilege mode to User. */
  unsigned long x = r_sstatus();
  x &= ~SSTATUS_SPP; /* clear SPP to 0 for user mode */
    80001d72:	eff77713          	and	a4,a4,-257
  x |= SSTATUS_SPIE; /* enable interrupts in user mode */
    80001d76:	02076713          	or	a4,a4,32
  asm volatile("csrw sstatus, %0" : : "r" (x));
    80001d7a:	10071073          	csrw	sstatus,a4
  w_sstatus(x);

  /* set S Exception Program Counter to the saved user pc. */
  w_sepc(p->trapframe->epc);
    80001d7e:	6d38                	ld	a4,88(a0)
  asm volatile("csrw sepc, %0" : : "r" (x));
    80001d80:	6f18                	ld	a4,24(a4)
    80001d82:	14171073          	csrw	sepc,a4

  /* tell trampoline.S the user page table to switch to. */
  uint64 satp = MAKE_SATP(p->pagetable);
    80001d86:	6928                	ld	a0,80(a0)
    80001d88:	8131                	srl	a0,a0,0xc

  /* jump to userret in trampoline.S at the top of memory, which  */
  /* switches to the user page table, restores user registers, */
  /* and switches to user mode with sret. */
  uint64 trampoline_userret = TRAMPOLINE + (userret - trampoline);
    80001d8a:	00005717          	auipc	a4,0x5
    80001d8e:	31270713          	add	a4,a4,786 # 8000709c <userret>
    80001d92:	8f15                	sub	a4,a4,a3
    80001d94:	97ba                	add	a5,a5,a4
  ((void (*)(uint64))trampoline_userret)(satp);
    80001d96:	577d                	li	a4,-1
    80001d98:	177e                	sll	a4,a4,0x3f
    80001d9a:	8d59                	or	a0,a0,a4
    80001d9c:	9782                	jalr	a5
}
    80001d9e:	60a2                	ld	ra,8(sp)
    80001da0:	6402                	ld	s0,0(sp)
    80001da2:	0141                	add	sp,sp,16
    80001da4:	8082                	ret

0000000080001da6 <clockintr>:
  w_sstatus(sstatus);
}

void
clockintr()
{
    80001da6:	1101                	add	sp,sp,-32
    80001da8:	ec06                	sd	ra,24(sp)
    80001daa:	e822                	sd	s0,16(sp)
    80001dac:	e426                	sd	s1,8(sp)
    80001dae:	1000                	add	s0,sp,32
  acquire(&tickslock);
    80001db0:	0002d497          	auipc	s1,0x2d
    80001db4:	d4848493          	add	s1,s1,-696 # 8002eaf8 <tickslock>
    80001db8:	8526                	mv	a0,s1
    80001dba:	00004097          	auipc	ra,0x4
    80001dbe:	644080e7          	jalr	1604(ra) # 800063fe <acquire>
  ticks++;
    80001dc2:	00007517          	auipc	a0,0x7
    80001dc6:	cc650513          	add	a0,a0,-826 # 80008a88 <ticks>
    80001dca:	411c                	lw	a5,0(a0)
    80001dcc:	2785                	addw	a5,a5,1
    80001dce:	c11c                	sw	a5,0(a0)
  wakeup(&ticks);
    80001dd0:	00000097          	auipc	ra,0x0
    80001dd4:	974080e7          	jalr	-1676(ra) # 80001744 <wakeup>
  release(&tickslock);
    80001dd8:	8526                	mv	a0,s1
    80001dda:	00004097          	auipc	ra,0x4
    80001dde:	6d8080e7          	jalr	1752(ra) # 800064b2 <release>
}
    80001de2:	60e2                	ld	ra,24(sp)
    80001de4:	6442                	ld	s0,16(sp)
    80001de6:	64a2                	ld	s1,8(sp)
    80001de8:	6105                	add	sp,sp,32
    80001dea:	8082                	ret

0000000080001dec <devintr>:
  asm volatile("csrr %0, scause" : "=r" (x) );
    80001dec:	142027f3          	csrr	a5,scause
    /* the SSIP bit in sip. */
    w_sip(r_sip() & ~2);

    return 2;
  } else {
    return 0;
    80001df0:	4501                	li	a0,0
  if((scause & 0x8000000000000000L) &&
    80001df2:	0807df63          	bgez	a5,80001e90 <devintr+0xa4>
{
    80001df6:	1101                	add	sp,sp,-32
    80001df8:	ec06                	sd	ra,24(sp)
    80001dfa:	e822                	sd	s0,16(sp)
    80001dfc:	e426                	sd	s1,8(sp)
    80001dfe:	1000                	add	s0,sp,32
     (scause & 0xff) == 9){
    80001e00:	0ff7f713          	zext.b	a4,a5
  if((scause & 0x8000000000000000L) &&
    80001e04:	46a5                	li	a3,9
    80001e06:	00d70d63          	beq	a4,a3,80001e20 <devintr+0x34>
  } else if(scause == 0x8000000000000001L){
    80001e0a:	577d                	li	a4,-1
    80001e0c:	177e                	sll	a4,a4,0x3f
    80001e0e:	0705                	add	a4,a4,1
    return 0;
    80001e10:	4501                	li	a0,0
  } else if(scause == 0x8000000000000001L){
    80001e12:	04e78e63          	beq	a5,a4,80001e6e <devintr+0x82>
  }
}
    80001e16:	60e2                	ld	ra,24(sp)
    80001e18:	6442                	ld	s0,16(sp)
    80001e1a:	64a2                	ld	s1,8(sp)
    80001e1c:	6105                	add	sp,sp,32
    80001e1e:	8082                	ret
    int irq = plic_claim();
    80001e20:	00003097          	auipc	ra,0x3
    80001e24:	5e8080e7          	jalr	1512(ra) # 80005408 <plic_claim>
    80001e28:	84aa                	mv	s1,a0
    if(irq == UART0_IRQ){
    80001e2a:	47a9                	li	a5,10
    80001e2c:	02f50763          	beq	a0,a5,80001e5a <devintr+0x6e>
    } else if(irq == VIRTIO0_IRQ){
    80001e30:	4785                	li	a5,1
    80001e32:	02f50963          	beq	a0,a5,80001e64 <devintr+0x78>
    return 1;
    80001e36:	4505                	li	a0,1
    } else if(irq){
    80001e38:	dcf9                	beqz	s1,80001e16 <devintr+0x2a>
      printf("unexpected interrupt irq=%d\n", irq);
    80001e3a:	85a6                	mv	a1,s1
    80001e3c:	00006517          	auipc	a0,0x6
    80001e40:	48450513          	add	a0,a0,1156 # 800082c0 <states.0+0x38>
    80001e44:	00004097          	auipc	ra,0x4
    80001e48:	0cc080e7          	jalr	204(ra) # 80005f10 <printf>
      plic_complete(irq);
    80001e4c:	8526                	mv	a0,s1
    80001e4e:	00003097          	auipc	ra,0x3
    80001e52:	5de080e7          	jalr	1502(ra) # 8000542c <plic_complete>
    return 1;
    80001e56:	4505                	li	a0,1
    80001e58:	bf7d                	j	80001e16 <devintr+0x2a>
      uartintr();
    80001e5a:	00004097          	auipc	ra,0x4
    80001e5e:	4c4080e7          	jalr	1220(ra) # 8000631e <uartintr>
    if(irq)
    80001e62:	b7ed                	j	80001e4c <devintr+0x60>
      virtio_disk_intr();
    80001e64:	00004097          	auipc	ra,0x4
    80001e68:	a8e080e7          	jalr	-1394(ra) # 800058f2 <virtio_disk_intr>
    if(irq)
    80001e6c:	b7c5                	j	80001e4c <devintr+0x60>
    if(cpuid() == 0){
    80001e6e:	fffff097          	auipc	ra,0xfffff
    80001e72:	192080e7          	jalr	402(ra) # 80001000 <cpuid>
    80001e76:	c901                	beqz	a0,80001e86 <devintr+0x9a>
  asm volatile("csrr %0, sip" : "=r" (x) );
    80001e78:	144027f3          	csrr	a5,sip
    w_sip(r_sip() & ~2);
    80001e7c:	9bf5                	and	a5,a5,-3
  asm volatile("csrw sip, %0" : : "r" (x));
    80001e7e:	14479073          	csrw	sip,a5
    return 2;
    80001e82:	4509                	li	a0,2
    80001e84:	bf49                	j	80001e16 <devintr+0x2a>
      clockintr();
    80001e86:	00000097          	auipc	ra,0x0
    80001e8a:	f20080e7          	jalr	-224(ra) # 80001da6 <clockintr>
    80001e8e:	b7ed                	j	80001e78 <devintr+0x8c>
}
    80001e90:	8082                	ret

0000000080001e92 <usertrap>:
{
    80001e92:	7139                	add	sp,sp,-64
    80001e94:	fc06                	sd	ra,56(sp)
    80001e96:	f822                	sd	s0,48(sp)
    80001e98:	f426                	sd	s1,40(sp)
    80001e9a:	f04a                	sd	s2,32(sp)
    80001e9c:	ec4e                	sd	s3,24(sp)
    80001e9e:	e852                	sd	s4,16(sp)
    80001ea0:	e456                	sd	s5,8(sp)
    80001ea2:	0080                	add	s0,sp,64
  asm volatile("csrr %0, sstatus" : "=r" (x) );
    80001ea4:	100027f3          	csrr	a5,sstatus
  if((r_sstatus() & SSTATUS_SPP) != 0)
    80001ea8:	1007f793          	and	a5,a5,256
    80001eac:	eba9                	bnez	a5,80001efe <usertrap+0x6c>
  asm volatile("csrw stvec, %0" : : "r" (x));
    80001eae:	00003797          	auipc	a5,0x3
    80001eb2:	45278793          	add	a5,a5,1106 # 80005300 <kernelvec>
    80001eb6:	10579073          	csrw	stvec,a5
  struct proc *p = myproc();
    80001eba:	fffff097          	auipc	ra,0xfffff
    80001ebe:	172080e7          	jalr	370(ra) # 8000102c <myproc>
    80001ec2:	84aa                	mv	s1,a0
  p->trapframe->epc = r_sepc();
    80001ec4:	6d3c                	ld	a5,88(a0)
  asm volatile("csrr %0, sepc" : "=r" (x) );
    80001ec6:	14102773          	csrr	a4,sepc
    80001eca:	ef98                	sd	a4,24(a5)
  asm volatile("csrr %0, scause" : "=r" (x) );
    80001ecc:	14202773          	csrr	a4,scause
  if(r_scause() == 8){
    80001ed0:	47a1                	li	a5,8
    80001ed2:	02f70e63          	beq	a4,a5,80001f0e <usertrap+0x7c>
    80001ed6:	14202773          	csrr	a4,scause
  } else if(r_scause() == 15) {
    80001eda:	47bd                	li	a5,15
    80001edc:	08f70663          	beq	a4,a5,80001f68 <usertrap+0xd6>
  } else if((which_dev = devintr()) != 0){
    80001ee0:	00000097          	auipc	ra,0x0
    80001ee4:	f0c080e7          	jalr	-244(ra) # 80001dec <devintr>
    80001ee8:	892a                	mv	s2,a0
    80001eea:	12050d63          	beqz	a0,80002024 <usertrap+0x192>
  if(killed(p))
    80001eee:	8526                	mv	a0,s1
    80001ef0:	00000097          	auipc	ra,0x0
    80001ef4:	a98080e7          	jalr	-1384(ra) # 80001988 <killed>
    80001ef8:	16050963          	beqz	a0,8000206a <usertrap+0x1d8>
    80001efc:	a295                	j	80002060 <usertrap+0x1ce>
    panic("usertrap: not from user mode");
    80001efe:	00006517          	auipc	a0,0x6
    80001f02:	3e250513          	add	a0,a0,994 # 800082e0 <states.0+0x58>
    80001f06:	00004097          	auipc	ra,0x4
    80001f0a:	fc0080e7          	jalr	-64(ra) # 80005ec6 <panic>
    if(killed(p))
    80001f0e:	00000097          	auipc	ra,0x0
    80001f12:	a7a080e7          	jalr	-1414(ra) # 80001988 <killed>
    80001f16:	e139                	bnez	a0,80001f5c <usertrap+0xca>
    p->trapframe->epc += 4;
    80001f18:	6cb8                	ld	a4,88(s1)
    80001f1a:	6f1c                	ld	a5,24(a4)
    80001f1c:	0791                	add	a5,a5,4
    80001f1e:	ef1c                	sd	a5,24(a4)
  asm volatile("csrr %0, sstatus" : "=r" (x) );
    80001f20:	100027f3          	csrr	a5,sstatus
  w_sstatus(r_sstatus() | SSTATUS_SIE);
    80001f24:	0027e793          	or	a5,a5,2
  asm volatile("csrw sstatus, %0" : : "r" (x));
    80001f28:	10079073          	csrw	sstatus,a5
    syscall();
    80001f2c:	00000097          	auipc	ra,0x0
    80001f30:	398080e7          	jalr	920(ra) # 800022c4 <syscall>
  if(killed(p))
    80001f34:	8526                	mv	a0,s1
    80001f36:	00000097          	auipc	ra,0x0
    80001f3a:	a52080e7          	jalr	-1454(ra) # 80001988 <killed>
    80001f3e:	12051063          	bnez	a0,8000205e <usertrap+0x1cc>
  usertrapret();
    80001f42:	00000097          	auipc	ra,0x0
    80001f46:	dce080e7          	jalr	-562(ra) # 80001d10 <usertrapret>
}
    80001f4a:	70e2                	ld	ra,56(sp)
    80001f4c:	7442                	ld	s0,48(sp)
    80001f4e:	74a2                	ld	s1,40(sp)
    80001f50:	7902                	ld	s2,32(sp)
    80001f52:	69e2                	ld	s3,24(sp)
    80001f54:	6a42                	ld	s4,16(sp)
    80001f56:	6aa2                	ld	s5,8(sp)
    80001f58:	6121                	add	sp,sp,64
    80001f5a:	8082                	ret
      exit(-1);
    80001f5c:	557d                	li	a0,-1
    80001f5e:	00000097          	auipc	ra,0x0
    80001f62:	8b6080e7          	jalr	-1866(ra) # 80001814 <exit>
    80001f66:	bf4d                	j	80001f18 <usertrap+0x86>
  asm volatile("csrr %0, stval" : "=r" (x) );
    80001f68:	14302a73          	csrr	s4,stval
    va = PGROUNDDOWN(r_stval());
    80001f6c:	77fd                	lui	a5,0xfffff
    80001f6e:	00fa7a33          	and	s4,s4,a5
    pte = walk(p->pagetable, va, 0);
    80001f72:	4601                	li	a2,0
    80001f74:	85d2                	mv	a1,s4
    80001f76:	6928                	ld	a0,80(a0)
    80001f78:	ffffe097          	auipc	ra,0xffffe
    80001f7c:	672080e7          	jalr	1650(ra) # 800005ea <walk>
    80001f80:	892a                	mv	s2,a0
    if ((*pte & PTE_V) && (*pte & PTE_COW)) {
    80001f82:	611c                	ld	a5,0(a0)
    80001f84:	1017f693          	and	a3,a5,257
    80001f88:	10100713          	li	a4,257
    80001f8c:	02e68063          	beq	a3,a4,80001fac <usertrap+0x11a>
      printf("usertrap(): invalid address\n");
    80001f90:	00006517          	auipc	a0,0x6
    80001f94:	37050513          	add	a0,a0,880 # 80008300 <states.0+0x78>
    80001f98:	00004097          	auipc	ra,0x4
    80001f9c:	f78080e7          	jalr	-136(ra) # 80005f10 <printf>
      setkilled(p);
    80001fa0:	8526                	mv	a0,s1
    80001fa2:	00000097          	auipc	ra,0x0
    80001fa6:	9ba080e7          	jalr	-1606(ra) # 8000195c <setkilled>
    80001faa:	b769                	j	80001f34 <usertrap+0xa2>
      pa = PTE2PA(*pte);
    80001fac:	83a9                	srl	a5,a5,0xa
    80001fae:	00c79993          	sll	s3,a5,0xc
      if (ref_cnt((void*)pa) == 1) {
    80001fb2:	854e                	mv	a0,s3
    80001fb4:	ffffe097          	auipc	ra,0xffffe
    80001fb8:	32e080e7          	jalr	814(ra) # 800002e2 <ref_cnt>
    80001fbc:	4785                	li	a5,1
    80001fbe:	00f51b63          	bne	a0,a5,80001fd4 <usertrap+0x142>
        *pte &= ~PTE_COW; *pte |= PTE_W; 
    80001fc2:	00093783          	ld	a5,0(s2)
    80001fc6:	eff7f793          	and	a5,a5,-257
    80001fca:	0047e793          	or	a5,a5,4
    80001fce:	00f93023          	sd	a5,0(s2)
    80001fd2:	b78d                	j	80001f34 <usertrap+0xa2>
        flags = ((PTE_FLAGS(*pte) | PTE_W) & ~PTE_COW);
    80001fd4:	00093903          	ld	s2,0(s2)
    80001fd8:	2fb97913          	and	s2,s2,763
    80001fdc:	00496913          	or	s2,s2,4
        mem = kalloc();
    80001fe0:	ffffe097          	auipc	ra,0xffffe
    80001fe4:	1b4080e7          	jalr	436(ra) # 80000194 <kalloc>
    80001fe8:	8aaa                	mv	s5,a0
        memmove(mem, (char*)pa, PGSIZE);
    80001fea:	6605                	lui	a2,0x1
    80001fec:	85ce                	mv	a1,s3
    80001fee:	ffffe097          	auipc	ra,0xffffe
    80001ff2:	376080e7          	jalr	886(ra) # 80000364 <memmove>
        uvmunmap(p->pagetable, va, 1, 0);
    80001ff6:	4681                	li	a3,0
    80001ff8:	4605                	li	a2,1
    80001ffa:	85d2                	mv	a1,s4
    80001ffc:	68a8                	ld	a0,80(s1)
    80001ffe:	fffff097          	auipc	ra,0xfffff
    80002002:	8be080e7          	jalr	-1858(ra) # 800008bc <uvmunmap>
        mappages(p->pagetable, va, 4096, (uint64)mem, flags);
    80002006:	874a                	mv	a4,s2
    80002008:	86d6                	mv	a3,s5
    8000200a:	6605                	lui	a2,0x1
    8000200c:	85d2                	mv	a1,s4
    8000200e:	68a8                	ld	a0,80(s1)
    80002010:	ffffe097          	auipc	ra,0xffffe
    80002014:	6c2080e7          	jalr	1730(ra) # 800006d2 <mappages>
        kfree((void*)pa);
    80002018:	854e                	mv	a0,s3
    8000201a:	ffffe097          	auipc	ra,0xffffe
    8000201e:	002080e7          	jalr	2(ra) # 8000001c <kfree>
    80002022:	bf09                	j	80001f34 <usertrap+0xa2>
  asm volatile("csrr %0, scause" : "=r" (x) );
    80002024:	142025f3          	csrr	a1,scause
    printf("usertrap(): unexpected scause %p pid=%d\n", r_scause(), p->pid);
    80002028:	5890                	lw	a2,48(s1)
    8000202a:	00006517          	auipc	a0,0x6
    8000202e:	2f650513          	add	a0,a0,758 # 80008320 <states.0+0x98>
    80002032:	00004097          	auipc	ra,0x4
    80002036:	ede080e7          	jalr	-290(ra) # 80005f10 <printf>
  asm volatile("csrr %0, sepc" : "=r" (x) );
    8000203a:	141025f3          	csrr	a1,sepc
  asm volatile("csrr %0, stval" : "=r" (x) );
    8000203e:	14302673          	csrr	a2,stval
    printf("            sepc=%p stval=%p\n", r_sepc(), r_stval());
    80002042:	00006517          	auipc	a0,0x6
    80002046:	30e50513          	add	a0,a0,782 # 80008350 <states.0+0xc8>
    8000204a:	00004097          	auipc	ra,0x4
    8000204e:	ec6080e7          	jalr	-314(ra) # 80005f10 <printf>
    setkilled(p);
    80002052:	8526                	mv	a0,s1
    80002054:	00000097          	auipc	ra,0x0
    80002058:	908080e7          	jalr	-1784(ra) # 8000195c <setkilled>
    8000205c:	bde1                	j	80001f34 <usertrap+0xa2>
  if(killed(p))
    8000205e:	4901                	li	s2,0
    exit(-1);
    80002060:	557d                	li	a0,-1
    80002062:	fffff097          	auipc	ra,0xfffff
    80002066:	7b2080e7          	jalr	1970(ra) # 80001814 <exit>
  if(which_dev == 2)
    8000206a:	4789                	li	a5,2
    8000206c:	ecf91be3          	bne	s2,a5,80001f42 <usertrap+0xb0>
    yield();
    80002070:	fffff097          	auipc	ra,0xfffff
    80002074:	634080e7          	jalr	1588(ra) # 800016a4 <yield>
    80002078:	b5e9                	j	80001f42 <usertrap+0xb0>

000000008000207a <kerneltrap>:
{
    8000207a:	7179                	add	sp,sp,-48
    8000207c:	f406                	sd	ra,40(sp)
    8000207e:	f022                	sd	s0,32(sp)
    80002080:	ec26                	sd	s1,24(sp)
    80002082:	e84a                	sd	s2,16(sp)
    80002084:	e44e                	sd	s3,8(sp)
    80002086:	1800                	add	s0,sp,48
  asm volatile("csrr %0, sepc" : "=r" (x) );
    80002088:	14102973          	csrr	s2,sepc
  asm volatile("csrr %0, sstatus" : "=r" (x) );
    8000208c:	100024f3          	csrr	s1,sstatus
  asm volatile("csrr %0, scause" : "=r" (x) );
    80002090:	142029f3          	csrr	s3,scause
  if((sstatus & SSTATUS_SPP) == 0)
    80002094:	1004f793          	and	a5,s1,256
    80002098:	cb85                	beqz	a5,800020c8 <kerneltrap+0x4e>
  asm volatile("csrr %0, sstatus" : "=r" (x) );
    8000209a:	100027f3          	csrr	a5,sstatus
  return (x & SSTATUS_SIE) != 0;
    8000209e:	8b89                	and	a5,a5,2
  if(intr_get() != 0)
    800020a0:	ef85                	bnez	a5,800020d8 <kerneltrap+0x5e>
  if((which_dev = devintr()) == 0){
    800020a2:	00000097          	auipc	ra,0x0
    800020a6:	d4a080e7          	jalr	-694(ra) # 80001dec <devintr>
    800020aa:	cd1d                	beqz	a0,800020e8 <kerneltrap+0x6e>
  if(which_dev == 2 && myproc() != 0 && myproc()->state == RUNNING)
    800020ac:	4789                	li	a5,2
    800020ae:	06f50a63          	beq	a0,a5,80002122 <kerneltrap+0xa8>
  asm volatile("csrw sepc, %0" : : "r" (x));
    800020b2:	14191073          	csrw	sepc,s2
  asm volatile("csrw sstatus, %0" : : "r" (x));
    800020b6:	10049073          	csrw	sstatus,s1
}
    800020ba:	70a2                	ld	ra,40(sp)
    800020bc:	7402                	ld	s0,32(sp)
    800020be:	64e2                	ld	s1,24(sp)
    800020c0:	6942                	ld	s2,16(sp)
    800020c2:	69a2                	ld	s3,8(sp)
    800020c4:	6145                	add	sp,sp,48
    800020c6:	8082                	ret
    panic("kerneltrap: not from supervisor mode");
    800020c8:	00006517          	auipc	a0,0x6
    800020cc:	2a850513          	add	a0,a0,680 # 80008370 <states.0+0xe8>
    800020d0:	00004097          	auipc	ra,0x4
    800020d4:	df6080e7          	jalr	-522(ra) # 80005ec6 <panic>
    panic("kerneltrap: interrupts enabled");
    800020d8:	00006517          	auipc	a0,0x6
    800020dc:	2c050513          	add	a0,a0,704 # 80008398 <states.0+0x110>
    800020e0:	00004097          	auipc	ra,0x4
    800020e4:	de6080e7          	jalr	-538(ra) # 80005ec6 <panic>
    printf("scause %p\n", scause);
    800020e8:	85ce                	mv	a1,s3
    800020ea:	00006517          	auipc	a0,0x6
    800020ee:	2ce50513          	add	a0,a0,718 # 800083b8 <states.0+0x130>
    800020f2:	00004097          	auipc	ra,0x4
    800020f6:	e1e080e7          	jalr	-482(ra) # 80005f10 <printf>
  asm volatile("csrr %0, sepc" : "=r" (x) );
    800020fa:	141025f3          	csrr	a1,sepc
  asm volatile("csrr %0, stval" : "=r" (x) );
    800020fe:	14302673          	csrr	a2,stval
    printf("sepc=%p stval=%p\n", r_sepc(), r_stval());
    80002102:	00006517          	auipc	a0,0x6
    80002106:	2c650513          	add	a0,a0,710 # 800083c8 <states.0+0x140>
    8000210a:	00004097          	auipc	ra,0x4
    8000210e:	e06080e7          	jalr	-506(ra) # 80005f10 <printf>
    panic("kerneltrap");
    80002112:	00006517          	auipc	a0,0x6
    80002116:	2ce50513          	add	a0,a0,718 # 800083e0 <states.0+0x158>
    8000211a:	00004097          	auipc	ra,0x4
    8000211e:	dac080e7          	jalr	-596(ra) # 80005ec6 <panic>
  if(which_dev == 2 && myproc() != 0 && myproc()->state == RUNNING)
    80002122:	fffff097          	auipc	ra,0xfffff
    80002126:	f0a080e7          	jalr	-246(ra) # 8000102c <myproc>
    8000212a:	d541                	beqz	a0,800020b2 <kerneltrap+0x38>
    8000212c:	fffff097          	auipc	ra,0xfffff
    80002130:	f00080e7          	jalr	-256(ra) # 8000102c <myproc>
    80002134:	4d18                	lw	a4,24(a0)
    80002136:	4791                	li	a5,4
    80002138:	f6f71de3          	bne	a4,a5,800020b2 <kerneltrap+0x38>
    yield();
    8000213c:	fffff097          	auipc	ra,0xfffff
    80002140:	568080e7          	jalr	1384(ra) # 800016a4 <yield>
    80002144:	b7bd                	j	800020b2 <kerneltrap+0x38>

0000000080002146 <argraw>:
  return strlen(buf);
}

static uint64
argraw(int n)
{
    80002146:	1101                	add	sp,sp,-32
    80002148:	ec06                	sd	ra,24(sp)
    8000214a:	e822                	sd	s0,16(sp)
    8000214c:	e426                	sd	s1,8(sp)
    8000214e:	1000                	add	s0,sp,32
    80002150:	84aa                	mv	s1,a0
  struct proc *p = myproc();
    80002152:	fffff097          	auipc	ra,0xfffff
    80002156:	eda080e7          	jalr	-294(ra) # 8000102c <myproc>
  switch (n) {
    8000215a:	4795                	li	a5,5
    8000215c:	0497e163          	bltu	a5,s1,8000219e <argraw+0x58>
    80002160:	048a                	sll	s1,s1,0x2
    80002162:	00006717          	auipc	a4,0x6
    80002166:	37670713          	add	a4,a4,886 # 800084d8 <states.0+0x250>
    8000216a:	94ba                	add	s1,s1,a4
    8000216c:	409c                	lw	a5,0(s1)
    8000216e:	97ba                	add	a5,a5,a4
    80002170:	8782                	jr	a5
  case 0:
    return p->trapframe->a0;
    80002172:	6d3c                	ld	a5,88(a0)
    80002174:	7ba8                	ld	a0,112(a5)
  case 5:
    return p->trapframe->a5;
  }
  panic("argraw");
  return -1;
}
    80002176:	60e2                	ld	ra,24(sp)
    80002178:	6442                	ld	s0,16(sp)
    8000217a:	64a2                	ld	s1,8(sp)
    8000217c:	6105                	add	sp,sp,32
    8000217e:	8082                	ret
    return p->trapframe->a1;
    80002180:	6d3c                	ld	a5,88(a0)
    80002182:	7fa8                	ld	a0,120(a5)
    80002184:	bfcd                	j	80002176 <argraw+0x30>
    return p->trapframe->a2;
    80002186:	6d3c                	ld	a5,88(a0)
    80002188:	63c8                	ld	a0,128(a5)
    8000218a:	b7f5                	j	80002176 <argraw+0x30>
    return p->trapframe->a3;
    8000218c:	6d3c                	ld	a5,88(a0)
    8000218e:	67c8                	ld	a0,136(a5)
    80002190:	b7dd                	j	80002176 <argraw+0x30>
    return p->trapframe->a4;
    80002192:	6d3c                	ld	a5,88(a0)
    80002194:	6bc8                	ld	a0,144(a5)
    80002196:	b7c5                	j	80002176 <argraw+0x30>
    return p->trapframe->a5;
    80002198:	6d3c                	ld	a5,88(a0)
    8000219a:	6fc8                	ld	a0,152(a5)
    8000219c:	bfe9                	j	80002176 <argraw+0x30>
  panic("argraw");
    8000219e:	00006517          	auipc	a0,0x6
    800021a2:	25250513          	add	a0,a0,594 # 800083f0 <states.0+0x168>
    800021a6:	00004097          	auipc	ra,0x4
    800021aa:	d20080e7          	jalr	-736(ra) # 80005ec6 <panic>

00000000800021ae <fetchaddr>:
{
    800021ae:	1101                	add	sp,sp,-32
    800021b0:	ec06                	sd	ra,24(sp)
    800021b2:	e822                	sd	s0,16(sp)
    800021b4:	e426                	sd	s1,8(sp)
    800021b6:	e04a                	sd	s2,0(sp)
    800021b8:	1000                	add	s0,sp,32
    800021ba:	84aa                	mv	s1,a0
    800021bc:	892e                	mv	s2,a1
  struct proc *p = myproc();
    800021be:	fffff097          	auipc	ra,0xfffff
    800021c2:	e6e080e7          	jalr	-402(ra) # 8000102c <myproc>
  if(addr >= p->sz || addr+sizeof(uint64) > p->sz) /* both tests needed, in case of overflow */
    800021c6:	653c                	ld	a5,72(a0)
    800021c8:	02f4f863          	bgeu	s1,a5,800021f8 <fetchaddr+0x4a>
    800021cc:	00848713          	add	a4,s1,8
    800021d0:	02e7e663          	bltu	a5,a4,800021fc <fetchaddr+0x4e>
  if(copyin(p->pagetable, (char *)ip, addr, sizeof(*ip)) != 0)
    800021d4:	46a1                	li	a3,8
    800021d6:	8626                	mv	a2,s1
    800021d8:	85ca                	mv	a1,s2
    800021da:	6928                	ld	a0,80(a0)
    800021dc:	fffff097          	auipc	ra,0xfffff
    800021e0:	b9c080e7          	jalr	-1124(ra) # 80000d78 <copyin>
    800021e4:	00a03533          	snez	a0,a0
    800021e8:	40a00533          	neg	a0,a0
}
    800021ec:	60e2                	ld	ra,24(sp)
    800021ee:	6442                	ld	s0,16(sp)
    800021f0:	64a2                	ld	s1,8(sp)
    800021f2:	6902                	ld	s2,0(sp)
    800021f4:	6105                	add	sp,sp,32
    800021f6:	8082                	ret
    return -1;
    800021f8:	557d                	li	a0,-1
    800021fa:	bfcd                	j	800021ec <fetchaddr+0x3e>
    800021fc:	557d                	li	a0,-1
    800021fe:	b7fd                	j	800021ec <fetchaddr+0x3e>

0000000080002200 <fetchstr>:
{
    80002200:	7179                	add	sp,sp,-48
    80002202:	f406                	sd	ra,40(sp)
    80002204:	f022                	sd	s0,32(sp)
    80002206:	ec26                	sd	s1,24(sp)
    80002208:	e84a                	sd	s2,16(sp)
    8000220a:	e44e                	sd	s3,8(sp)
    8000220c:	1800                	add	s0,sp,48
    8000220e:	892a                	mv	s2,a0
    80002210:	84ae                	mv	s1,a1
    80002212:	89b2                	mv	s3,a2
  struct proc *p = myproc();
    80002214:	fffff097          	auipc	ra,0xfffff
    80002218:	e18080e7          	jalr	-488(ra) # 8000102c <myproc>
  if(copyinstr(p->pagetable, buf, addr, max) < 0)
    8000221c:	86ce                	mv	a3,s3
    8000221e:	864a                	mv	a2,s2
    80002220:	85a6                	mv	a1,s1
    80002222:	6928                	ld	a0,80(a0)
    80002224:	fffff097          	auipc	ra,0xfffff
    80002228:	be2080e7          	jalr	-1054(ra) # 80000e06 <copyinstr>
    8000222c:	00054e63          	bltz	a0,80002248 <fetchstr+0x48>
  return strlen(buf);
    80002230:	8526                	mv	a0,s1
    80002232:	ffffe097          	auipc	ra,0xffffe
    80002236:	250080e7          	jalr	592(ra) # 80000482 <strlen>
}
    8000223a:	70a2                	ld	ra,40(sp)
    8000223c:	7402                	ld	s0,32(sp)
    8000223e:	64e2                	ld	s1,24(sp)
    80002240:	6942                	ld	s2,16(sp)
    80002242:	69a2                	ld	s3,8(sp)
    80002244:	6145                	add	sp,sp,48
    80002246:	8082                	ret
    return -1;
    80002248:	557d                	li	a0,-1
    8000224a:	bfc5                	j	8000223a <fetchstr+0x3a>

000000008000224c <argint>:

/* Fetch the nth 32-bit system call argument. */
void
argint(int n, int *ip)
{
    8000224c:	1101                	add	sp,sp,-32
    8000224e:	ec06                	sd	ra,24(sp)
    80002250:	e822                	sd	s0,16(sp)
    80002252:	e426                	sd	s1,8(sp)
    80002254:	1000                	add	s0,sp,32
    80002256:	84ae                	mv	s1,a1
  *ip = argraw(n);
    80002258:	00000097          	auipc	ra,0x0
    8000225c:	eee080e7          	jalr	-274(ra) # 80002146 <argraw>
    80002260:	c088                	sw	a0,0(s1)
}
    80002262:	60e2                	ld	ra,24(sp)
    80002264:	6442                	ld	s0,16(sp)
    80002266:	64a2                	ld	s1,8(sp)
    80002268:	6105                	add	sp,sp,32
    8000226a:	8082                	ret

000000008000226c <argaddr>:
/* Retrieve an argument as a pointer. */
/* Doesn't check for legality, since */
/* copyin/copyout will do that. */
void
argaddr(int n, uint64 *ip)
{
    8000226c:	1101                	add	sp,sp,-32
    8000226e:	ec06                	sd	ra,24(sp)
    80002270:	e822                	sd	s0,16(sp)
    80002272:	e426                	sd	s1,8(sp)
    80002274:	1000                	add	s0,sp,32
    80002276:	84ae                	mv	s1,a1
  *ip = argraw(n);
    80002278:	00000097          	auipc	ra,0x0
    8000227c:	ece080e7          	jalr	-306(ra) # 80002146 <argraw>
    80002280:	e088                	sd	a0,0(s1)
}
    80002282:	60e2                	ld	ra,24(sp)
    80002284:	6442                	ld	s0,16(sp)
    80002286:	64a2                	ld	s1,8(sp)
    80002288:	6105                	add	sp,sp,32
    8000228a:	8082                	ret

000000008000228c <argstr>:
/* Fetch the nth word-sized system call argument as a null-terminated string. */
/* Copies into buf, at most max. */
/* Returns string length if OK (including nul), -1 if error. */
int
argstr(int n, char *buf, int max)
{
    8000228c:	7179                	add	sp,sp,-48
    8000228e:	f406                	sd	ra,40(sp)
    80002290:	f022                	sd	s0,32(sp)
    80002292:	ec26                	sd	s1,24(sp)
    80002294:	e84a                	sd	s2,16(sp)
    80002296:	1800                	add	s0,sp,48
    80002298:	84ae                	mv	s1,a1
    8000229a:	8932                	mv	s2,a2
  uint64 addr;
  argaddr(n, &addr);
    8000229c:	fd840593          	add	a1,s0,-40
    800022a0:	00000097          	auipc	ra,0x0
    800022a4:	fcc080e7          	jalr	-52(ra) # 8000226c <argaddr>
  return fetchstr(addr, buf, max);
    800022a8:	864a                	mv	a2,s2
    800022aa:	85a6                	mv	a1,s1
    800022ac:	fd843503          	ld	a0,-40(s0)
    800022b0:	00000097          	auipc	ra,0x0
    800022b4:	f50080e7          	jalr	-176(ra) # 80002200 <fetchstr>
}
    800022b8:	70a2                	ld	ra,40(sp)
    800022ba:	7402                	ld	s0,32(sp)
    800022bc:	64e2                	ld	s1,24(sp)
    800022be:	6942                	ld	s2,16(sp)
    800022c0:	6145                	add	sp,sp,48
    800022c2:	8082                	ret

00000000800022c4 <syscall>:

/* End CMPT 332 group14 change Fall 2023 */

void
syscall(void)
{
    800022c4:	715d                	add	sp,sp,-80
    800022c6:	e486                	sd	ra,72(sp)
    800022c8:	e0a2                	sd	s0,64(sp)
    800022ca:	fc26                	sd	s1,56(sp)
    800022cc:	f84a                	sd	s2,48(sp)
    800022ce:	f44e                	sd	s3,40(sp)
    800022d0:	f052                	sd	s4,32(sp)
    800022d2:	ec56                	sd	s5,24(sp)
    800022d4:	e85a                	sd	s6,16(sp)
    800022d6:	e45e                	sd	s7,8(sp)
    800022d8:	0880                	add	s0,sp,80
  int num;
  struct proc *p = myproc();
    800022da:	fffff097          	auipc	ra,0xfffff
    800022de:	d52080e7          	jalr	-686(ra) # 8000102c <myproc>
    800022e2:	89aa                	mv	s3,a0
  int i;
  int bit;

  /* End CMPT 332 group14 change Fall 2023 */

  num = p->trapframe->a7;
    800022e4:	6d24                	ld	s1,88(a0)
    800022e6:	74dc                	ld	a5,168(s1)
    800022e8:	00078b1b          	sext.w	s6,a5
  if(num > 0 && num < NELEM(syscalls) && syscalls[num]) {
    800022ec:	37fd                	addw	a5,a5,-1 # ffffffffffffefff <end+0xffffffff7ffbcedf>
    800022ee:	4759                	li	a4,22
    800022f0:	06f76863          	bltu	a4,a5,80002360 <syscall+0x9c>
    800022f4:	003b1713          	sll	a4,s6,0x3
    800022f8:	00006797          	auipc	a5,0x6
    800022fc:	1f878793          	add	a5,a5,504 # 800084f0 <syscalls>
    80002300:	97ba                	add	a5,a5,a4
    80002302:	639c                	ld	a5,0(a5)
    80002304:	cfb1                	beqz	a5,80002360 <syscall+0x9c>
    /* Use num to lookup the system call function for num, call it, */
    /* and store its return value in p->trapframe->a0 */
    p->trapframe->a0 = syscalls[num]();
    80002306:	9782                	jalr	a5
    80002308:	f8a8                	sd	a0,112(s1)

    /* Begin CMPT 332 group14 change Fall 2023 */

    if (p->tmask > 0) {
    8000230a:	1689a783          	lw	a5,360(s3)
    8000230e:	06f05a63          	blez	a5,80002382 <syscall+0xbe>
    80002312:	00006917          	auipc	s2,0x6
    80002316:	6a690913          	add	s2,s2,1702 # 800089b8 <syscall_names>
      for (i = 1; i < 32; i++) {
    8000231a:	4485                	li	s1,1
        bit = p->tmask & (1 << i);
    8000231c:	4a85                	li	s5,1
        if (bit != 0) {
          if (i == num) {
            printf("%d: syscall %s -> %d\n",
    8000231e:	00006b97          	auipc	s7,0x6
    80002322:	0dab8b93          	add	s7,s7,218 # 800083f8 <states.0+0x170>
      for (i = 1; i < 32; i++) {
    80002326:	02000a13          	li	s4,32
    8000232a:	a029                	j	80002334 <syscall+0x70>
    8000232c:	2485                	addw	s1,s1,1
    8000232e:	0921                	add	s2,s2,8
    80002330:	05448963          	beq	s1,s4,80002382 <syscall+0xbe>
        bit = p->tmask & (1 << i);
    80002334:	009a973b          	sllw	a4,s5,s1
    80002338:	1689a783          	lw	a5,360(s3)
    8000233c:	8ff9                	and	a5,a5,a4
        if (bit != 0) {
    8000233e:	2781                	sext.w	a5,a5
    80002340:	d7f5                	beqz	a5,8000232c <syscall+0x68>
          if (i == num) {
    80002342:	fe9b15e3          	bne	s6,s1,8000232c <syscall+0x68>
            printf("%d: syscall %s -> %d\n",
    80002346:	0589b783          	ld	a5,88(s3)
    8000234a:	7bb4                	ld	a3,112(a5)
    8000234c:	00093603          	ld	a2,0(s2)
    80002350:	0309a583          	lw	a1,48(s3)
    80002354:	855e                	mv	a0,s7
    80002356:	00004097          	auipc	ra,0x4
    8000235a:	bba080e7          	jalr	-1094(ra) # 80005f10 <printf>
    8000235e:	b7f9                	j	8000232c <syscall+0x68>
    }

    /* End CMPT 332 group14 change Fall 2023 */

  } else {
    printf("%d %s: unknown sys call %d\n",
    80002360:	86da                	mv	a3,s6
    80002362:	15898613          	add	a2,s3,344
    80002366:	0309a583          	lw	a1,48(s3)
    8000236a:	00006517          	auipc	a0,0x6
    8000236e:	0a650513          	add	a0,a0,166 # 80008410 <states.0+0x188>
    80002372:	00004097          	auipc	ra,0x4
    80002376:	b9e080e7          	jalr	-1122(ra) # 80005f10 <printf>
            p->pid, p->name, num);
    p->trapframe->a0 = -1;
    8000237a:	0589b783          	ld	a5,88(s3)
    8000237e:	577d                	li	a4,-1
    80002380:	fbb8                	sd	a4,112(a5)
  }
}
    80002382:	60a6                	ld	ra,72(sp)
    80002384:	6406                	ld	s0,64(sp)
    80002386:	74e2                	ld	s1,56(sp)
    80002388:	7942                	ld	s2,48(sp)
    8000238a:	79a2                	ld	s3,40(sp)
    8000238c:	7a02                	ld	s4,32(sp)
    8000238e:	6ae2                	ld	s5,24(sp)
    80002390:	6b42                	ld	s6,16(sp)
    80002392:	6ba2                	ld	s7,8(sp)
    80002394:	6161                	add	sp,sp,80
    80002396:	8082                	ret

0000000080002398 <sys_exit>:
#include "spinlock.h"
#include "proc.h"

uint64
sys_exit(void)
{
    80002398:	1101                	add	sp,sp,-32
    8000239a:	ec06                	sd	ra,24(sp)
    8000239c:	e822                	sd	s0,16(sp)
    8000239e:	1000                	add	s0,sp,32
  int n;
  argint(0, &n);
    800023a0:	fec40593          	add	a1,s0,-20
    800023a4:	4501                	li	a0,0
    800023a6:	00000097          	auipc	ra,0x0
    800023aa:	ea6080e7          	jalr	-346(ra) # 8000224c <argint>
  exit(n);
    800023ae:	fec42503          	lw	a0,-20(s0)
    800023b2:	fffff097          	auipc	ra,0xfffff
    800023b6:	462080e7          	jalr	1122(ra) # 80001814 <exit>
  return 0;  /* not reached */
}
    800023ba:	4501                	li	a0,0
    800023bc:	60e2                	ld	ra,24(sp)
    800023be:	6442                	ld	s0,16(sp)
    800023c0:	6105                	add	sp,sp,32
    800023c2:	8082                	ret

00000000800023c4 <sys_getpid>:

uint64
sys_getpid(void)
{
    800023c4:	1141                	add	sp,sp,-16
    800023c6:	e406                	sd	ra,8(sp)
    800023c8:	e022                	sd	s0,0(sp)
    800023ca:	0800                	add	s0,sp,16
  return myproc()->pid;
    800023cc:	fffff097          	auipc	ra,0xfffff
    800023d0:	c60080e7          	jalr	-928(ra) # 8000102c <myproc>
}
    800023d4:	5908                	lw	a0,48(a0)
    800023d6:	60a2                	ld	ra,8(sp)
    800023d8:	6402                	ld	s0,0(sp)
    800023da:	0141                	add	sp,sp,16
    800023dc:	8082                	ret

00000000800023de <sys_fork>:

uint64
sys_fork(void)
{
    800023de:	1141                	add	sp,sp,-16
    800023e0:	e406                	sd	ra,8(sp)
    800023e2:	e022                	sd	s0,0(sp)
    800023e4:	0800                	add	s0,sp,16
  return fork();
    800023e6:	fffff097          	auipc	ra,0xfffff
    800023ea:	000080e7          	jalr	ra # 800013e6 <fork>
}
    800023ee:	60a2                	ld	ra,8(sp)
    800023f0:	6402                	ld	s0,0(sp)
    800023f2:	0141                	add	sp,sp,16
    800023f4:	8082                	ret

00000000800023f6 <sys_wait>:

uint64
sys_wait(void)
{
    800023f6:	1101                	add	sp,sp,-32
    800023f8:	ec06                	sd	ra,24(sp)
    800023fa:	e822                	sd	s0,16(sp)
    800023fc:	1000                	add	s0,sp,32
  uint64 p;
  argaddr(0, &p);
    800023fe:	fe840593          	add	a1,s0,-24
    80002402:	4501                	li	a0,0
    80002404:	00000097          	auipc	ra,0x0
    80002408:	e68080e7          	jalr	-408(ra) # 8000226c <argaddr>
  return wait(p);
    8000240c:	fe843503          	ld	a0,-24(s0)
    80002410:	fffff097          	auipc	ra,0xfffff
    80002414:	5aa080e7          	jalr	1450(ra) # 800019ba <wait>
}
    80002418:	60e2                	ld	ra,24(sp)
    8000241a:	6442                	ld	s0,16(sp)
    8000241c:	6105                	add	sp,sp,32
    8000241e:	8082                	ret

0000000080002420 <sys_sbrk>:

uint64
sys_sbrk(void)
{
    80002420:	7179                	add	sp,sp,-48
    80002422:	f406                	sd	ra,40(sp)
    80002424:	f022                	sd	s0,32(sp)
    80002426:	ec26                	sd	s1,24(sp)
    80002428:	1800                	add	s0,sp,48
  uint64 addr;
  int n;

  argint(0, &n);
    8000242a:	fdc40593          	add	a1,s0,-36
    8000242e:	4501                	li	a0,0
    80002430:	00000097          	auipc	ra,0x0
    80002434:	e1c080e7          	jalr	-484(ra) # 8000224c <argint>
  addr = myproc()->sz;
    80002438:	fffff097          	auipc	ra,0xfffff
    8000243c:	bf4080e7          	jalr	-1036(ra) # 8000102c <myproc>
    80002440:	6524                	ld	s1,72(a0)
  if(growproc(n) < 0)
    80002442:	fdc42503          	lw	a0,-36(s0)
    80002446:	fffff097          	auipc	ra,0xfffff
    8000244a:	f44080e7          	jalr	-188(ra) # 8000138a <growproc>
    8000244e:	00054863          	bltz	a0,8000245e <sys_sbrk+0x3e>
    return -1;
  return addr;
}
    80002452:	8526                	mv	a0,s1
    80002454:	70a2                	ld	ra,40(sp)
    80002456:	7402                	ld	s0,32(sp)
    80002458:	64e2                	ld	s1,24(sp)
    8000245a:	6145                	add	sp,sp,48
    8000245c:	8082                	ret
    return -1;
    8000245e:	54fd                	li	s1,-1
    80002460:	bfcd                	j	80002452 <sys_sbrk+0x32>

0000000080002462 <sys_sleep>:

uint64
sys_sleep(void)
{
    80002462:	7139                	add	sp,sp,-64
    80002464:	fc06                	sd	ra,56(sp)
    80002466:	f822                	sd	s0,48(sp)
    80002468:	f426                	sd	s1,40(sp)
    8000246a:	f04a                	sd	s2,32(sp)
    8000246c:	ec4e                	sd	s3,24(sp)
    8000246e:	0080                	add	s0,sp,64
  int n;
  uint ticks0;

  argint(0, &n);
    80002470:	fcc40593          	add	a1,s0,-52
    80002474:	4501                	li	a0,0
    80002476:	00000097          	auipc	ra,0x0
    8000247a:	dd6080e7          	jalr	-554(ra) # 8000224c <argint>
  if(n < 0)
    8000247e:	fcc42783          	lw	a5,-52(s0)
    80002482:	0607cf63          	bltz	a5,80002500 <sys_sleep+0x9e>
    n = 0;
  acquire(&tickslock);
    80002486:	0002c517          	auipc	a0,0x2c
    8000248a:	67250513          	add	a0,a0,1650 # 8002eaf8 <tickslock>
    8000248e:	00004097          	auipc	ra,0x4
    80002492:	f70080e7          	jalr	-144(ra) # 800063fe <acquire>
  ticks0 = ticks;
    80002496:	00006917          	auipc	s2,0x6
    8000249a:	5f292903          	lw	s2,1522(s2) # 80008a88 <ticks>
  while(ticks - ticks0 < n){
    8000249e:	fcc42783          	lw	a5,-52(s0)
    800024a2:	cf9d                	beqz	a5,800024e0 <sys_sleep+0x7e>
    if(killed(myproc())){
      release(&tickslock);
      return -1;
    }
    sleep(&ticks, &tickslock);
    800024a4:	0002c997          	auipc	s3,0x2c
    800024a8:	65498993          	add	s3,s3,1620 # 8002eaf8 <tickslock>
    800024ac:	00006497          	auipc	s1,0x6
    800024b0:	5dc48493          	add	s1,s1,1500 # 80008a88 <ticks>
    if(killed(myproc())){
    800024b4:	fffff097          	auipc	ra,0xfffff
    800024b8:	b78080e7          	jalr	-1160(ra) # 8000102c <myproc>
    800024bc:	fffff097          	auipc	ra,0xfffff
    800024c0:	4cc080e7          	jalr	1228(ra) # 80001988 <killed>
    800024c4:	e129                	bnez	a0,80002506 <sys_sleep+0xa4>
    sleep(&ticks, &tickslock);
    800024c6:	85ce                	mv	a1,s3
    800024c8:	8526                	mv	a0,s1
    800024ca:	fffff097          	auipc	ra,0xfffff
    800024ce:	216080e7          	jalr	534(ra) # 800016e0 <sleep>
  while(ticks - ticks0 < n){
    800024d2:	409c                	lw	a5,0(s1)
    800024d4:	412787bb          	subw	a5,a5,s2
    800024d8:	fcc42703          	lw	a4,-52(s0)
    800024dc:	fce7ece3          	bltu	a5,a4,800024b4 <sys_sleep+0x52>
  }
  release(&tickslock);
    800024e0:	0002c517          	auipc	a0,0x2c
    800024e4:	61850513          	add	a0,a0,1560 # 8002eaf8 <tickslock>
    800024e8:	00004097          	auipc	ra,0x4
    800024ec:	fca080e7          	jalr	-54(ra) # 800064b2 <release>
  return 0;
    800024f0:	4501                	li	a0,0
}
    800024f2:	70e2                	ld	ra,56(sp)
    800024f4:	7442                	ld	s0,48(sp)
    800024f6:	74a2                	ld	s1,40(sp)
    800024f8:	7902                	ld	s2,32(sp)
    800024fa:	69e2                	ld	s3,24(sp)
    800024fc:	6121                	add	sp,sp,64
    800024fe:	8082                	ret
    n = 0;
    80002500:	fc042623          	sw	zero,-52(s0)
    80002504:	b749                	j	80002486 <sys_sleep+0x24>
      release(&tickslock);
    80002506:	0002c517          	auipc	a0,0x2c
    8000250a:	5f250513          	add	a0,a0,1522 # 8002eaf8 <tickslock>
    8000250e:	00004097          	auipc	ra,0x4
    80002512:	fa4080e7          	jalr	-92(ra) # 800064b2 <release>
      return -1;
    80002516:	557d                	li	a0,-1
    80002518:	bfe9                	j	800024f2 <sys_sleep+0x90>

000000008000251a <sys_kill>:

uint64
sys_kill(void)
{
    8000251a:	1101                	add	sp,sp,-32
    8000251c:	ec06                	sd	ra,24(sp)
    8000251e:	e822                	sd	s0,16(sp)
    80002520:	1000                	add	s0,sp,32
  int pid;

  argint(0, &pid);
    80002522:	fec40593          	add	a1,s0,-20
    80002526:	4501                	li	a0,0
    80002528:	00000097          	auipc	ra,0x0
    8000252c:	d24080e7          	jalr	-732(ra) # 8000224c <argint>
  return kill(pid);
    80002530:	fec42503          	lw	a0,-20(s0)
    80002534:	fffff097          	auipc	ra,0xfffff
    80002538:	3b6080e7          	jalr	950(ra) # 800018ea <kill>
}
    8000253c:	60e2                	ld	ra,24(sp)
    8000253e:	6442                	ld	s0,16(sp)
    80002540:	6105                	add	sp,sp,32
    80002542:	8082                	ret

0000000080002544 <sys_uptime>:

/* return how many clock tick interrupts have occurred */
/* since start. */
uint64
sys_uptime(void)
{
    80002544:	1101                	add	sp,sp,-32
    80002546:	ec06                	sd	ra,24(sp)
    80002548:	e822                	sd	s0,16(sp)
    8000254a:	e426                	sd	s1,8(sp)
    8000254c:	1000                	add	s0,sp,32
  uint xticks;

  acquire(&tickslock);
    8000254e:	0002c517          	auipc	a0,0x2c
    80002552:	5aa50513          	add	a0,a0,1450 # 8002eaf8 <tickslock>
    80002556:	00004097          	auipc	ra,0x4
    8000255a:	ea8080e7          	jalr	-344(ra) # 800063fe <acquire>
  xticks = ticks;
    8000255e:	00006497          	auipc	s1,0x6
    80002562:	52a4a483          	lw	s1,1322(s1) # 80008a88 <ticks>
  release(&tickslock);
    80002566:	0002c517          	auipc	a0,0x2c
    8000256a:	59250513          	add	a0,a0,1426 # 8002eaf8 <tickslock>
    8000256e:	00004097          	auipc	ra,0x4
    80002572:	f44080e7          	jalr	-188(ra) # 800064b2 <release>
  return xticks;
}
    80002576:	02049513          	sll	a0,s1,0x20
    8000257a:	9101                	srl	a0,a0,0x20
    8000257c:	60e2                	ld	ra,24(sp)
    8000257e:	6442                	ld	s0,16(sp)
    80002580:	64a2                	ld	s1,8(sp)
    80002582:	6105                	add	sp,sp,32
    80002584:	8082                	ret

0000000080002586 <sys_trace>:

/* enables tracing for the process that calls it */
/* and children that it subsequently forks. */
uint64
sys_trace(void)
{
    80002586:	1101                	add	sp,sp,-32
    80002588:	ec06                	sd	ra,24(sp)
    8000258a:	e822                	sd	s0,16(sp)
    8000258c:	1000                	add	s0,sp,32
  int mask;

  argint(0, &mask);
    8000258e:	fec40593          	add	a1,s0,-20
    80002592:	4501                	li	a0,0
    80002594:	00000097          	auipc	ra,0x0
    80002598:	cb8080e7          	jalr	-840(ra) # 8000224c <argint>
  myproc()->tmask = mask;
    8000259c:	fffff097          	auipc	ra,0xfffff
    800025a0:	a90080e7          	jalr	-1392(ra) # 8000102c <myproc>
    800025a4:	fec42783          	lw	a5,-20(s0)
    800025a8:	16f52423          	sw	a5,360(a0)
  return 0;
}
    800025ac:	4501                	li	a0,0
    800025ae:	60e2                	ld	ra,24(sp)
    800025b0:	6442                	ld	s0,16(sp)
    800025b2:	6105                	add	sp,sp,32
    800025b4:	8082                	ret

00000000800025b6 <sys_getNumFreePages>:

/* returns the number of free physical pages */
uint64
sys_getNumFreePages(void)
{
    800025b6:	1141                	add	sp,sp,-16
    800025b8:	e406                	sd	ra,8(sp)
    800025ba:	e022                	sd	s0,0(sp)
    800025bc:	0800                	add	s0,sp,16
  return nfree();
    800025be:	ffffe097          	auipc	ra,0xffffe
    800025c2:	c74080e7          	jalr	-908(ra) # 80000232 <nfree>
}
    800025c6:	60a2                	ld	ra,8(sp)
    800025c8:	6402                	ld	s0,0(sp)
    800025ca:	0141                	add	sp,sp,16
    800025cc:	8082                	ret

00000000800025ce <binit>:
  struct buf head;
} bcache;

void
binit(void)
{
    800025ce:	7179                	add	sp,sp,-48
    800025d0:	f406                	sd	ra,40(sp)
    800025d2:	f022                	sd	s0,32(sp)
    800025d4:	ec26                	sd	s1,24(sp)
    800025d6:	e84a                	sd	s2,16(sp)
    800025d8:	e44e                	sd	s3,8(sp)
    800025da:	e052                	sd	s4,0(sp)
    800025dc:	1800                	add	s0,sp,48
  struct buf *b;

  initlock(&bcache.lock, "bcache");
    800025de:	00006597          	auipc	a1,0x6
    800025e2:	fd258593          	add	a1,a1,-46 # 800085b0 <syscalls+0xc0>
    800025e6:	0002c517          	auipc	a0,0x2c
    800025ea:	52a50513          	add	a0,a0,1322 # 8002eb10 <bcache>
    800025ee:	00004097          	auipc	ra,0x4
    800025f2:	d80080e7          	jalr	-640(ra) # 8000636e <initlock>

  /* Create linked list of buffers */
  bcache.head.prev = &bcache.head;
    800025f6:	00034797          	auipc	a5,0x34
    800025fa:	51a78793          	add	a5,a5,1306 # 80036b10 <bcache+0x8000>
    800025fe:	00034717          	auipc	a4,0x34
    80002602:	77a70713          	add	a4,a4,1914 # 80036d78 <bcache+0x8268>
    80002606:	2ae7b823          	sd	a4,688(a5)
  bcache.head.next = &bcache.head;
    8000260a:	2ae7bc23          	sd	a4,696(a5)
  for(b = bcache.buf; b < bcache.buf+NBUF; b++){
    8000260e:	0002c497          	auipc	s1,0x2c
    80002612:	51a48493          	add	s1,s1,1306 # 8002eb28 <bcache+0x18>
    b->next = bcache.head.next;
    80002616:	893e                	mv	s2,a5
    b->prev = &bcache.head;
    80002618:	89ba                	mv	s3,a4
    initsleeplock(&b->lock, "buffer");
    8000261a:	00006a17          	auipc	s4,0x6
    8000261e:	f9ea0a13          	add	s4,s4,-98 # 800085b8 <syscalls+0xc8>
    b->next = bcache.head.next;
    80002622:	2b893783          	ld	a5,696(s2)
    80002626:	e8bc                	sd	a5,80(s1)
    b->prev = &bcache.head;
    80002628:	0534b423          	sd	s3,72(s1)
    initsleeplock(&b->lock, "buffer");
    8000262c:	85d2                	mv	a1,s4
    8000262e:	01048513          	add	a0,s1,16
    80002632:	00001097          	auipc	ra,0x1
    80002636:	496080e7          	jalr	1174(ra) # 80003ac8 <initsleeplock>
    bcache.head.next->prev = b;
    8000263a:	2b893783          	ld	a5,696(s2)
    8000263e:	e7a4                	sd	s1,72(a5)
    bcache.head.next = b;
    80002640:	2a993c23          	sd	s1,696(s2)
  for(b = bcache.buf; b < bcache.buf+NBUF; b++){
    80002644:	45848493          	add	s1,s1,1112
    80002648:	fd349de3          	bne	s1,s3,80002622 <binit+0x54>
  }
}
    8000264c:	70a2                	ld	ra,40(sp)
    8000264e:	7402                	ld	s0,32(sp)
    80002650:	64e2                	ld	s1,24(sp)
    80002652:	6942                	ld	s2,16(sp)
    80002654:	69a2                	ld	s3,8(sp)
    80002656:	6a02                	ld	s4,0(sp)
    80002658:	6145                	add	sp,sp,48
    8000265a:	8082                	ret

000000008000265c <bread>:
}

/* Return a locked buf with the contents of the indicated block. */
struct buf*
bread(uint dev, uint blockno)
{
    8000265c:	7179                	add	sp,sp,-48
    8000265e:	f406                	sd	ra,40(sp)
    80002660:	f022                	sd	s0,32(sp)
    80002662:	ec26                	sd	s1,24(sp)
    80002664:	e84a                	sd	s2,16(sp)
    80002666:	e44e                	sd	s3,8(sp)
    80002668:	1800                	add	s0,sp,48
    8000266a:	892a                	mv	s2,a0
    8000266c:	89ae                	mv	s3,a1
  acquire(&bcache.lock);
    8000266e:	0002c517          	auipc	a0,0x2c
    80002672:	4a250513          	add	a0,a0,1186 # 8002eb10 <bcache>
    80002676:	00004097          	auipc	ra,0x4
    8000267a:	d88080e7          	jalr	-632(ra) # 800063fe <acquire>
  for(b = bcache.head.next; b != &bcache.head; b = b->next){
    8000267e:	00034497          	auipc	s1,0x34
    80002682:	74a4b483          	ld	s1,1866(s1) # 80036dc8 <bcache+0x82b8>
    80002686:	00034797          	auipc	a5,0x34
    8000268a:	6f278793          	add	a5,a5,1778 # 80036d78 <bcache+0x8268>
    8000268e:	02f48f63          	beq	s1,a5,800026cc <bread+0x70>
    80002692:	873e                	mv	a4,a5
    80002694:	a021                	j	8000269c <bread+0x40>
    80002696:	68a4                	ld	s1,80(s1)
    80002698:	02e48a63          	beq	s1,a4,800026cc <bread+0x70>
    if(b->dev == dev && b->blockno == blockno){
    8000269c:	449c                	lw	a5,8(s1)
    8000269e:	ff279ce3          	bne	a5,s2,80002696 <bread+0x3a>
    800026a2:	44dc                	lw	a5,12(s1)
    800026a4:	ff3799e3          	bne	a5,s3,80002696 <bread+0x3a>
      b->refcnt++;
    800026a8:	40bc                	lw	a5,64(s1)
    800026aa:	2785                	addw	a5,a5,1
    800026ac:	c0bc                	sw	a5,64(s1)
      release(&bcache.lock);
    800026ae:	0002c517          	auipc	a0,0x2c
    800026b2:	46250513          	add	a0,a0,1122 # 8002eb10 <bcache>
    800026b6:	00004097          	auipc	ra,0x4
    800026ba:	dfc080e7          	jalr	-516(ra) # 800064b2 <release>
      acquiresleep(&b->lock);
    800026be:	01048513          	add	a0,s1,16
    800026c2:	00001097          	auipc	ra,0x1
    800026c6:	440080e7          	jalr	1088(ra) # 80003b02 <acquiresleep>
      return b;
    800026ca:	a8b9                	j	80002728 <bread+0xcc>
  for(b = bcache.head.prev; b != &bcache.head; b = b->prev){
    800026cc:	00034497          	auipc	s1,0x34
    800026d0:	6f44b483          	ld	s1,1780(s1) # 80036dc0 <bcache+0x82b0>
    800026d4:	00034797          	auipc	a5,0x34
    800026d8:	6a478793          	add	a5,a5,1700 # 80036d78 <bcache+0x8268>
    800026dc:	00f48863          	beq	s1,a5,800026ec <bread+0x90>
    800026e0:	873e                	mv	a4,a5
    if(b->refcnt == 0) {
    800026e2:	40bc                	lw	a5,64(s1)
    800026e4:	cf81                	beqz	a5,800026fc <bread+0xa0>
  for(b = bcache.head.prev; b != &bcache.head; b = b->prev){
    800026e6:	64a4                	ld	s1,72(s1)
    800026e8:	fee49de3          	bne	s1,a4,800026e2 <bread+0x86>
  panic("bget: no buffers");
    800026ec:	00006517          	auipc	a0,0x6
    800026f0:	ed450513          	add	a0,a0,-300 # 800085c0 <syscalls+0xd0>
    800026f4:	00003097          	auipc	ra,0x3
    800026f8:	7d2080e7          	jalr	2002(ra) # 80005ec6 <panic>
      b->dev = dev;
    800026fc:	0124a423          	sw	s2,8(s1)
      b->blockno = blockno;
    80002700:	0134a623          	sw	s3,12(s1)
      b->valid = 0;
    80002704:	0004a023          	sw	zero,0(s1)
      b->refcnt = 1;
    80002708:	4785                	li	a5,1
    8000270a:	c0bc                	sw	a5,64(s1)
      release(&bcache.lock);
    8000270c:	0002c517          	auipc	a0,0x2c
    80002710:	40450513          	add	a0,a0,1028 # 8002eb10 <bcache>
    80002714:	00004097          	auipc	ra,0x4
    80002718:	d9e080e7          	jalr	-610(ra) # 800064b2 <release>
      acquiresleep(&b->lock);
    8000271c:	01048513          	add	a0,s1,16
    80002720:	00001097          	auipc	ra,0x1
    80002724:	3e2080e7          	jalr	994(ra) # 80003b02 <acquiresleep>
  struct buf *b;

  b = bget(dev, blockno);
  if(!b->valid) {
    80002728:	409c                	lw	a5,0(s1)
    8000272a:	cb89                	beqz	a5,8000273c <bread+0xe0>
    virtio_disk_rw(b, 0);
    b->valid = 1;
  }
  return b;
}
    8000272c:	8526                	mv	a0,s1
    8000272e:	70a2                	ld	ra,40(sp)
    80002730:	7402                	ld	s0,32(sp)
    80002732:	64e2                	ld	s1,24(sp)
    80002734:	6942                	ld	s2,16(sp)
    80002736:	69a2                	ld	s3,8(sp)
    80002738:	6145                	add	sp,sp,48
    8000273a:	8082                	ret
    virtio_disk_rw(b, 0);
    8000273c:	4581                	li	a1,0
    8000273e:	8526                	mv	a0,s1
    80002740:	00003097          	auipc	ra,0x3
    80002744:	f82080e7          	jalr	-126(ra) # 800056c2 <virtio_disk_rw>
    b->valid = 1;
    80002748:	4785                	li	a5,1
    8000274a:	c09c                	sw	a5,0(s1)
  return b;
    8000274c:	b7c5                	j	8000272c <bread+0xd0>

000000008000274e <bwrite>:

/* Write b's contents to disk.  Must be locked. */
void
bwrite(struct buf *b)
{
    8000274e:	1101                	add	sp,sp,-32
    80002750:	ec06                	sd	ra,24(sp)
    80002752:	e822                	sd	s0,16(sp)
    80002754:	e426                	sd	s1,8(sp)
    80002756:	1000                	add	s0,sp,32
    80002758:	84aa                	mv	s1,a0
  if(!holdingsleep(&b->lock))
    8000275a:	0541                	add	a0,a0,16
    8000275c:	00001097          	auipc	ra,0x1
    80002760:	440080e7          	jalr	1088(ra) # 80003b9c <holdingsleep>
    80002764:	cd01                	beqz	a0,8000277c <bwrite+0x2e>
    panic("bwrite");
  virtio_disk_rw(b, 1);
    80002766:	4585                	li	a1,1
    80002768:	8526                	mv	a0,s1
    8000276a:	00003097          	auipc	ra,0x3
    8000276e:	f58080e7          	jalr	-168(ra) # 800056c2 <virtio_disk_rw>
}
    80002772:	60e2                	ld	ra,24(sp)
    80002774:	6442                	ld	s0,16(sp)
    80002776:	64a2                	ld	s1,8(sp)
    80002778:	6105                	add	sp,sp,32
    8000277a:	8082                	ret
    panic("bwrite");
    8000277c:	00006517          	auipc	a0,0x6
    80002780:	e5c50513          	add	a0,a0,-420 # 800085d8 <syscalls+0xe8>
    80002784:	00003097          	auipc	ra,0x3
    80002788:	742080e7          	jalr	1858(ra) # 80005ec6 <panic>

000000008000278c <brelse>:

/* Release a locked buffer. */
/* Move to the head of the most-recently-used list. */
void
brelse(struct buf *b)
{
    8000278c:	1101                	add	sp,sp,-32
    8000278e:	ec06                	sd	ra,24(sp)
    80002790:	e822                	sd	s0,16(sp)
    80002792:	e426                	sd	s1,8(sp)
    80002794:	e04a                	sd	s2,0(sp)
    80002796:	1000                	add	s0,sp,32
    80002798:	84aa                	mv	s1,a0
  if(!holdingsleep(&b->lock))
    8000279a:	01050913          	add	s2,a0,16
    8000279e:	854a                	mv	a0,s2
    800027a0:	00001097          	auipc	ra,0x1
    800027a4:	3fc080e7          	jalr	1020(ra) # 80003b9c <holdingsleep>
    800027a8:	c925                	beqz	a0,80002818 <brelse+0x8c>
    panic("brelse");

  releasesleep(&b->lock);
    800027aa:	854a                	mv	a0,s2
    800027ac:	00001097          	auipc	ra,0x1
    800027b0:	3ac080e7          	jalr	940(ra) # 80003b58 <releasesleep>

  acquire(&bcache.lock);
    800027b4:	0002c517          	auipc	a0,0x2c
    800027b8:	35c50513          	add	a0,a0,860 # 8002eb10 <bcache>
    800027bc:	00004097          	auipc	ra,0x4
    800027c0:	c42080e7          	jalr	-958(ra) # 800063fe <acquire>
  b->refcnt--;
    800027c4:	40bc                	lw	a5,64(s1)
    800027c6:	37fd                	addw	a5,a5,-1
    800027c8:	0007871b          	sext.w	a4,a5
    800027cc:	c0bc                	sw	a5,64(s1)
  if (b->refcnt == 0) {
    800027ce:	e71d                	bnez	a4,800027fc <brelse+0x70>
    /* no one is waiting for it. */
    b->next->prev = b->prev;
    800027d0:	68b8                	ld	a4,80(s1)
    800027d2:	64bc                	ld	a5,72(s1)
    800027d4:	e73c                	sd	a5,72(a4)
    b->prev->next = b->next;
    800027d6:	68b8                	ld	a4,80(s1)
    800027d8:	ebb8                	sd	a4,80(a5)
    b->next = bcache.head.next;
    800027da:	00034797          	auipc	a5,0x34
    800027de:	33678793          	add	a5,a5,822 # 80036b10 <bcache+0x8000>
    800027e2:	2b87b703          	ld	a4,696(a5)
    800027e6:	e8b8                	sd	a4,80(s1)
    b->prev = &bcache.head;
    800027e8:	00034717          	auipc	a4,0x34
    800027ec:	59070713          	add	a4,a4,1424 # 80036d78 <bcache+0x8268>
    800027f0:	e4b8                	sd	a4,72(s1)
    bcache.head.next->prev = b;
    800027f2:	2b87b703          	ld	a4,696(a5)
    800027f6:	e724                	sd	s1,72(a4)
    bcache.head.next = b;
    800027f8:	2a97bc23          	sd	s1,696(a5)
  }
  
  release(&bcache.lock);
    800027fc:	0002c517          	auipc	a0,0x2c
    80002800:	31450513          	add	a0,a0,788 # 8002eb10 <bcache>
    80002804:	00004097          	auipc	ra,0x4
    80002808:	cae080e7          	jalr	-850(ra) # 800064b2 <release>
}
    8000280c:	60e2                	ld	ra,24(sp)
    8000280e:	6442                	ld	s0,16(sp)
    80002810:	64a2                	ld	s1,8(sp)
    80002812:	6902                	ld	s2,0(sp)
    80002814:	6105                	add	sp,sp,32
    80002816:	8082                	ret
    panic("brelse");
    80002818:	00006517          	auipc	a0,0x6
    8000281c:	dc850513          	add	a0,a0,-568 # 800085e0 <syscalls+0xf0>
    80002820:	00003097          	auipc	ra,0x3
    80002824:	6a6080e7          	jalr	1702(ra) # 80005ec6 <panic>

0000000080002828 <bpin>:

void
bpin(struct buf *b) {
    80002828:	1101                	add	sp,sp,-32
    8000282a:	ec06                	sd	ra,24(sp)
    8000282c:	e822                	sd	s0,16(sp)
    8000282e:	e426                	sd	s1,8(sp)
    80002830:	1000                	add	s0,sp,32
    80002832:	84aa                	mv	s1,a0
  acquire(&bcache.lock);
    80002834:	0002c517          	auipc	a0,0x2c
    80002838:	2dc50513          	add	a0,a0,732 # 8002eb10 <bcache>
    8000283c:	00004097          	auipc	ra,0x4
    80002840:	bc2080e7          	jalr	-1086(ra) # 800063fe <acquire>
  b->refcnt++;
    80002844:	40bc                	lw	a5,64(s1)
    80002846:	2785                	addw	a5,a5,1
    80002848:	c0bc                	sw	a5,64(s1)
  release(&bcache.lock);
    8000284a:	0002c517          	auipc	a0,0x2c
    8000284e:	2c650513          	add	a0,a0,710 # 8002eb10 <bcache>
    80002852:	00004097          	auipc	ra,0x4
    80002856:	c60080e7          	jalr	-928(ra) # 800064b2 <release>
}
    8000285a:	60e2                	ld	ra,24(sp)
    8000285c:	6442                	ld	s0,16(sp)
    8000285e:	64a2                	ld	s1,8(sp)
    80002860:	6105                	add	sp,sp,32
    80002862:	8082                	ret

0000000080002864 <bunpin>:

void
bunpin(struct buf *b) {
    80002864:	1101                	add	sp,sp,-32
    80002866:	ec06                	sd	ra,24(sp)
    80002868:	e822                	sd	s0,16(sp)
    8000286a:	e426                	sd	s1,8(sp)
    8000286c:	1000                	add	s0,sp,32
    8000286e:	84aa                	mv	s1,a0
  acquire(&bcache.lock);
    80002870:	0002c517          	auipc	a0,0x2c
    80002874:	2a050513          	add	a0,a0,672 # 8002eb10 <bcache>
    80002878:	00004097          	auipc	ra,0x4
    8000287c:	b86080e7          	jalr	-1146(ra) # 800063fe <acquire>
  b->refcnt--;
    80002880:	40bc                	lw	a5,64(s1)
    80002882:	37fd                	addw	a5,a5,-1
    80002884:	c0bc                	sw	a5,64(s1)
  release(&bcache.lock);
    80002886:	0002c517          	auipc	a0,0x2c
    8000288a:	28a50513          	add	a0,a0,650 # 8002eb10 <bcache>
    8000288e:	00004097          	auipc	ra,0x4
    80002892:	c24080e7          	jalr	-988(ra) # 800064b2 <release>
}
    80002896:	60e2                	ld	ra,24(sp)
    80002898:	6442                	ld	s0,16(sp)
    8000289a:	64a2                	ld	s1,8(sp)
    8000289c:	6105                	add	sp,sp,32
    8000289e:	8082                	ret

00000000800028a0 <bfree>:
}

/* Free a disk block. */
static void
bfree(int dev, uint b)
{
    800028a0:	1101                	add	sp,sp,-32
    800028a2:	ec06                	sd	ra,24(sp)
    800028a4:	e822                	sd	s0,16(sp)
    800028a6:	e426                	sd	s1,8(sp)
    800028a8:	e04a                	sd	s2,0(sp)
    800028aa:	1000                	add	s0,sp,32
    800028ac:	84ae                	mv	s1,a1
  struct buf *bp;
  int bi, m;

  bp = bread(dev, BBLOCK(b, sb));
    800028ae:	00d5d59b          	srlw	a1,a1,0xd
    800028b2:	00035797          	auipc	a5,0x35
    800028b6:	93a7a783          	lw	a5,-1734(a5) # 800371ec <sb+0x1c>
    800028ba:	9dbd                	addw	a1,a1,a5
    800028bc:	00000097          	auipc	ra,0x0
    800028c0:	da0080e7          	jalr	-608(ra) # 8000265c <bread>
  bi = b % BPB;
  m = 1 << (bi % 8);
    800028c4:	0074f713          	and	a4,s1,7
    800028c8:	4785                	li	a5,1
    800028ca:	00e797bb          	sllw	a5,a5,a4
  if((bp->data[bi/8] & m) == 0)
    800028ce:	14ce                	sll	s1,s1,0x33
    800028d0:	90d9                	srl	s1,s1,0x36
    800028d2:	00950733          	add	a4,a0,s1
    800028d6:	05874703          	lbu	a4,88(a4)
    800028da:	00e7f6b3          	and	a3,a5,a4
    800028de:	c69d                	beqz	a3,8000290c <bfree+0x6c>
    800028e0:	892a                	mv	s2,a0
    panic("freeing free block");
  bp->data[bi/8] &= ~m;
    800028e2:	94aa                	add	s1,s1,a0
    800028e4:	fff7c793          	not	a5,a5
    800028e8:	8f7d                	and	a4,a4,a5
    800028ea:	04e48c23          	sb	a4,88(s1)
  log_write(bp);
    800028ee:	00001097          	auipc	ra,0x1
    800028f2:	0f6080e7          	jalr	246(ra) # 800039e4 <log_write>
  brelse(bp);
    800028f6:	854a                	mv	a0,s2
    800028f8:	00000097          	auipc	ra,0x0
    800028fc:	e94080e7          	jalr	-364(ra) # 8000278c <brelse>
}
    80002900:	60e2                	ld	ra,24(sp)
    80002902:	6442                	ld	s0,16(sp)
    80002904:	64a2                	ld	s1,8(sp)
    80002906:	6902                	ld	s2,0(sp)
    80002908:	6105                	add	sp,sp,32
    8000290a:	8082                	ret
    panic("freeing free block");
    8000290c:	00006517          	auipc	a0,0x6
    80002910:	cdc50513          	add	a0,a0,-804 # 800085e8 <syscalls+0xf8>
    80002914:	00003097          	auipc	ra,0x3
    80002918:	5b2080e7          	jalr	1458(ra) # 80005ec6 <panic>

000000008000291c <balloc>:
{
    8000291c:	711d                	add	sp,sp,-96
    8000291e:	ec86                	sd	ra,88(sp)
    80002920:	e8a2                	sd	s0,80(sp)
    80002922:	e4a6                	sd	s1,72(sp)
    80002924:	e0ca                	sd	s2,64(sp)
    80002926:	fc4e                	sd	s3,56(sp)
    80002928:	f852                	sd	s4,48(sp)
    8000292a:	f456                	sd	s5,40(sp)
    8000292c:	f05a                	sd	s6,32(sp)
    8000292e:	ec5e                	sd	s7,24(sp)
    80002930:	e862                	sd	s8,16(sp)
    80002932:	e466                	sd	s9,8(sp)
    80002934:	1080                	add	s0,sp,96
  for(b = 0; b < sb.size; b += BPB){
    80002936:	00035797          	auipc	a5,0x35
    8000293a:	89e7a783          	lw	a5,-1890(a5) # 800371d4 <sb+0x4>
    8000293e:	cff5                	beqz	a5,80002a3a <balloc+0x11e>
    80002940:	8baa                	mv	s7,a0
    80002942:	4a81                	li	s5,0
    bp = bread(dev, BBLOCK(b, sb));
    80002944:	00035b17          	auipc	s6,0x35
    80002948:	88cb0b13          	add	s6,s6,-1908 # 800371d0 <sb>
    for(bi = 0; bi < BPB && b + bi < sb.size; bi++){
    8000294c:	4c01                	li	s8,0
      m = 1 << (bi % 8);
    8000294e:	4985                	li	s3,1
    for(bi = 0; bi < BPB && b + bi < sb.size; bi++){
    80002950:	6a09                	lui	s4,0x2
  for(b = 0; b < sb.size; b += BPB){
    80002952:	6c89                	lui	s9,0x2
    80002954:	a061                	j	800029dc <balloc+0xc0>
        bp->data[bi/8] |= m;  /* Mark block in use. */
    80002956:	97ca                	add	a5,a5,s2
    80002958:	8e55                	or	a2,a2,a3
    8000295a:	04c78c23          	sb	a2,88(a5)
        log_write(bp);
    8000295e:	854a                	mv	a0,s2
    80002960:	00001097          	auipc	ra,0x1
    80002964:	084080e7          	jalr	132(ra) # 800039e4 <log_write>
        brelse(bp);
    80002968:	854a                	mv	a0,s2
    8000296a:	00000097          	auipc	ra,0x0
    8000296e:	e22080e7          	jalr	-478(ra) # 8000278c <brelse>
  bp = bread(dev, bno);
    80002972:	85a6                	mv	a1,s1
    80002974:	855e                	mv	a0,s7
    80002976:	00000097          	auipc	ra,0x0
    8000297a:	ce6080e7          	jalr	-794(ra) # 8000265c <bread>
    8000297e:	892a                	mv	s2,a0
  memset(bp->data, 0, BSIZE);
    80002980:	40000613          	li	a2,1024
    80002984:	4581                	li	a1,0
    80002986:	05850513          	add	a0,a0,88
    8000298a:	ffffe097          	auipc	ra,0xffffe
    8000298e:	97e080e7          	jalr	-1666(ra) # 80000308 <memset>
  log_write(bp);
    80002992:	854a                	mv	a0,s2
    80002994:	00001097          	auipc	ra,0x1
    80002998:	050080e7          	jalr	80(ra) # 800039e4 <log_write>
  brelse(bp);
    8000299c:	854a                	mv	a0,s2
    8000299e:	00000097          	auipc	ra,0x0
    800029a2:	dee080e7          	jalr	-530(ra) # 8000278c <brelse>
}
    800029a6:	8526                	mv	a0,s1
    800029a8:	60e6                	ld	ra,88(sp)
    800029aa:	6446                	ld	s0,80(sp)
    800029ac:	64a6                	ld	s1,72(sp)
    800029ae:	6906                	ld	s2,64(sp)
    800029b0:	79e2                	ld	s3,56(sp)
    800029b2:	7a42                	ld	s4,48(sp)
    800029b4:	7aa2                	ld	s5,40(sp)
    800029b6:	7b02                	ld	s6,32(sp)
    800029b8:	6be2                	ld	s7,24(sp)
    800029ba:	6c42                	ld	s8,16(sp)
    800029bc:	6ca2                	ld	s9,8(sp)
    800029be:	6125                	add	sp,sp,96
    800029c0:	8082                	ret
    brelse(bp);
    800029c2:	854a                	mv	a0,s2
    800029c4:	00000097          	auipc	ra,0x0
    800029c8:	dc8080e7          	jalr	-568(ra) # 8000278c <brelse>
  for(b = 0; b < sb.size; b += BPB){
    800029cc:	015c87bb          	addw	a5,s9,s5
    800029d0:	00078a9b          	sext.w	s5,a5
    800029d4:	004b2703          	lw	a4,4(s6)
    800029d8:	06eaf163          	bgeu	s5,a4,80002a3a <balloc+0x11e>
    bp = bread(dev, BBLOCK(b, sb));
    800029dc:	41fad79b          	sraw	a5,s5,0x1f
    800029e0:	0137d79b          	srlw	a5,a5,0x13
    800029e4:	015787bb          	addw	a5,a5,s5
    800029e8:	40d7d79b          	sraw	a5,a5,0xd
    800029ec:	01cb2583          	lw	a1,28(s6)
    800029f0:	9dbd                	addw	a1,a1,a5
    800029f2:	855e                	mv	a0,s7
    800029f4:	00000097          	auipc	ra,0x0
    800029f8:	c68080e7          	jalr	-920(ra) # 8000265c <bread>
    800029fc:	892a                	mv	s2,a0
    for(bi = 0; bi < BPB && b + bi < sb.size; bi++){
    800029fe:	004b2503          	lw	a0,4(s6)
    80002a02:	000a849b          	sext.w	s1,s5
    80002a06:	8762                	mv	a4,s8
    80002a08:	faa4fde3          	bgeu	s1,a0,800029c2 <balloc+0xa6>
      m = 1 << (bi % 8);
    80002a0c:	00777693          	and	a3,a4,7
    80002a10:	00d996bb          	sllw	a3,s3,a3
      if((bp->data[bi/8] & m) == 0){  /* Is block free? */
    80002a14:	41f7579b          	sraw	a5,a4,0x1f
    80002a18:	01d7d79b          	srlw	a5,a5,0x1d
    80002a1c:	9fb9                	addw	a5,a5,a4
    80002a1e:	4037d79b          	sraw	a5,a5,0x3
    80002a22:	00f90633          	add	a2,s2,a5
    80002a26:	05864603          	lbu	a2,88(a2) # 1058 <_entry-0x7fffefa8>
    80002a2a:	00c6f5b3          	and	a1,a3,a2
    80002a2e:	d585                	beqz	a1,80002956 <balloc+0x3a>
    for(bi = 0; bi < BPB && b + bi < sb.size; bi++){
    80002a30:	2705                	addw	a4,a4,1
    80002a32:	2485                	addw	s1,s1,1
    80002a34:	fd471ae3          	bne	a4,s4,80002a08 <balloc+0xec>
    80002a38:	b769                	j	800029c2 <balloc+0xa6>
  printf("balloc: out of blocks\n");
    80002a3a:	00006517          	auipc	a0,0x6
    80002a3e:	bc650513          	add	a0,a0,-1082 # 80008600 <syscalls+0x110>
    80002a42:	00003097          	auipc	ra,0x3
    80002a46:	4ce080e7          	jalr	1230(ra) # 80005f10 <printf>
  return 0;
    80002a4a:	4481                	li	s1,0
    80002a4c:	bfa9                	j	800029a6 <balloc+0x8a>

0000000080002a4e <bmap>:
/* Return the disk block address of the nth block in inode ip. */
/* If there is no such block, bmap allocates one. */
/* returns 0 if out of disk space. */
static uint
bmap(struct inode *ip, uint bn)
{
    80002a4e:	7179                	add	sp,sp,-48
    80002a50:	f406                	sd	ra,40(sp)
    80002a52:	f022                	sd	s0,32(sp)
    80002a54:	ec26                	sd	s1,24(sp)
    80002a56:	e84a                	sd	s2,16(sp)
    80002a58:	e44e                	sd	s3,8(sp)
    80002a5a:	e052                	sd	s4,0(sp)
    80002a5c:	1800                	add	s0,sp,48
    80002a5e:	89aa                	mv	s3,a0
  uint addr, *a;
  struct buf *bp;

  if(bn < NDIRECT){
    80002a60:	47ad                	li	a5,11
    80002a62:	02b7e863          	bltu	a5,a1,80002a92 <bmap+0x44>
    if((addr = ip->addrs[bn]) == 0){
    80002a66:	02059793          	sll	a5,a1,0x20
    80002a6a:	01e7d593          	srl	a1,a5,0x1e
    80002a6e:	00b504b3          	add	s1,a0,a1
    80002a72:	0504a903          	lw	s2,80(s1)
    80002a76:	06091e63          	bnez	s2,80002af2 <bmap+0xa4>
      addr = balloc(ip->dev);
    80002a7a:	4108                	lw	a0,0(a0)
    80002a7c:	00000097          	auipc	ra,0x0
    80002a80:	ea0080e7          	jalr	-352(ra) # 8000291c <balloc>
    80002a84:	0005091b          	sext.w	s2,a0
      if(addr == 0)
    80002a88:	06090563          	beqz	s2,80002af2 <bmap+0xa4>
        return 0;
      ip->addrs[bn] = addr;
    80002a8c:	0524a823          	sw	s2,80(s1)
    80002a90:	a08d                	j	80002af2 <bmap+0xa4>
    }
    return addr;
  }
  bn -= NDIRECT;
    80002a92:	ff45849b          	addw	s1,a1,-12
    80002a96:	0004871b          	sext.w	a4,s1

  if(bn < NINDIRECT){
    80002a9a:	0ff00793          	li	a5,255
    80002a9e:	08e7e563          	bltu	a5,a4,80002b28 <bmap+0xda>
    /* Load indirect block, allocating if necessary. */
    if((addr = ip->addrs[NDIRECT]) == 0){
    80002aa2:	08052903          	lw	s2,128(a0)
    80002aa6:	00091d63          	bnez	s2,80002ac0 <bmap+0x72>
      addr = balloc(ip->dev);
    80002aaa:	4108                	lw	a0,0(a0)
    80002aac:	00000097          	auipc	ra,0x0
    80002ab0:	e70080e7          	jalr	-400(ra) # 8000291c <balloc>
    80002ab4:	0005091b          	sext.w	s2,a0
      if(addr == 0)
    80002ab8:	02090d63          	beqz	s2,80002af2 <bmap+0xa4>
        return 0;
      ip->addrs[NDIRECT] = addr;
    80002abc:	0929a023          	sw	s2,128(s3)
    }
    bp = bread(ip->dev, addr);
    80002ac0:	85ca                	mv	a1,s2
    80002ac2:	0009a503          	lw	a0,0(s3)
    80002ac6:	00000097          	auipc	ra,0x0
    80002aca:	b96080e7          	jalr	-1130(ra) # 8000265c <bread>
    80002ace:	8a2a                	mv	s4,a0
    a = (uint*)bp->data;
    80002ad0:	05850793          	add	a5,a0,88
    if((addr = a[bn]) == 0){
    80002ad4:	02049713          	sll	a4,s1,0x20
    80002ad8:	01e75593          	srl	a1,a4,0x1e
    80002adc:	00b784b3          	add	s1,a5,a1
    80002ae0:	0004a903          	lw	s2,0(s1)
    80002ae4:	02090063          	beqz	s2,80002b04 <bmap+0xb6>
      if(addr){
        a[bn] = addr;
        log_write(bp);
      }
    }
    brelse(bp);
    80002ae8:	8552                	mv	a0,s4
    80002aea:	00000097          	auipc	ra,0x0
    80002aee:	ca2080e7          	jalr	-862(ra) # 8000278c <brelse>
    return addr;
  }

  panic("bmap: out of range");
}
    80002af2:	854a                	mv	a0,s2
    80002af4:	70a2                	ld	ra,40(sp)
    80002af6:	7402                	ld	s0,32(sp)
    80002af8:	64e2                	ld	s1,24(sp)
    80002afa:	6942                	ld	s2,16(sp)
    80002afc:	69a2                	ld	s3,8(sp)
    80002afe:	6a02                	ld	s4,0(sp)
    80002b00:	6145                	add	sp,sp,48
    80002b02:	8082                	ret
      addr = balloc(ip->dev);
    80002b04:	0009a503          	lw	a0,0(s3)
    80002b08:	00000097          	auipc	ra,0x0
    80002b0c:	e14080e7          	jalr	-492(ra) # 8000291c <balloc>
    80002b10:	0005091b          	sext.w	s2,a0
      if(addr){
    80002b14:	fc090ae3          	beqz	s2,80002ae8 <bmap+0x9a>
        a[bn] = addr;
    80002b18:	0124a023          	sw	s2,0(s1)
        log_write(bp);
    80002b1c:	8552                	mv	a0,s4
    80002b1e:	00001097          	auipc	ra,0x1
    80002b22:	ec6080e7          	jalr	-314(ra) # 800039e4 <log_write>
    80002b26:	b7c9                	j	80002ae8 <bmap+0x9a>
  panic("bmap: out of range");
    80002b28:	00006517          	auipc	a0,0x6
    80002b2c:	af050513          	add	a0,a0,-1296 # 80008618 <syscalls+0x128>
    80002b30:	00003097          	auipc	ra,0x3
    80002b34:	396080e7          	jalr	918(ra) # 80005ec6 <panic>

0000000080002b38 <iget>:
{
    80002b38:	7179                	add	sp,sp,-48
    80002b3a:	f406                	sd	ra,40(sp)
    80002b3c:	f022                	sd	s0,32(sp)
    80002b3e:	ec26                	sd	s1,24(sp)
    80002b40:	e84a                	sd	s2,16(sp)
    80002b42:	e44e                	sd	s3,8(sp)
    80002b44:	e052                	sd	s4,0(sp)
    80002b46:	1800                	add	s0,sp,48
    80002b48:	89aa                	mv	s3,a0
    80002b4a:	8a2e                	mv	s4,a1
  acquire(&itable.lock);
    80002b4c:	00034517          	auipc	a0,0x34
    80002b50:	6a450513          	add	a0,a0,1700 # 800371f0 <itable>
    80002b54:	00004097          	auipc	ra,0x4
    80002b58:	8aa080e7          	jalr	-1878(ra) # 800063fe <acquire>
  empty = 0;
    80002b5c:	4901                	li	s2,0
  for(ip = &itable.inode[0]; ip < &itable.inode[NINODE]; ip++){
    80002b5e:	00034497          	auipc	s1,0x34
    80002b62:	6aa48493          	add	s1,s1,1706 # 80037208 <itable+0x18>
    80002b66:	00036697          	auipc	a3,0x36
    80002b6a:	13268693          	add	a3,a3,306 # 80038c98 <log>
    80002b6e:	a039                	j	80002b7c <iget+0x44>
    if(empty == 0 && ip->ref == 0)    /* Remember empty slot. */
    80002b70:	02090b63          	beqz	s2,80002ba6 <iget+0x6e>
  for(ip = &itable.inode[0]; ip < &itable.inode[NINODE]; ip++){
    80002b74:	08848493          	add	s1,s1,136
    80002b78:	02d48a63          	beq	s1,a3,80002bac <iget+0x74>
    if(ip->ref > 0 && ip->dev == dev && ip->inum == inum){
    80002b7c:	449c                	lw	a5,8(s1)
    80002b7e:	fef059e3          	blez	a5,80002b70 <iget+0x38>
    80002b82:	4098                	lw	a4,0(s1)
    80002b84:	ff3716e3          	bne	a4,s3,80002b70 <iget+0x38>
    80002b88:	40d8                	lw	a4,4(s1)
    80002b8a:	ff4713e3          	bne	a4,s4,80002b70 <iget+0x38>
      ip->ref++;
    80002b8e:	2785                	addw	a5,a5,1
    80002b90:	c49c                	sw	a5,8(s1)
      release(&itable.lock);
    80002b92:	00034517          	auipc	a0,0x34
    80002b96:	65e50513          	add	a0,a0,1630 # 800371f0 <itable>
    80002b9a:	00004097          	auipc	ra,0x4
    80002b9e:	918080e7          	jalr	-1768(ra) # 800064b2 <release>
      return ip;
    80002ba2:	8926                	mv	s2,s1
    80002ba4:	a03d                	j	80002bd2 <iget+0x9a>
    if(empty == 0 && ip->ref == 0)    /* Remember empty slot. */
    80002ba6:	f7f9                	bnez	a5,80002b74 <iget+0x3c>
    80002ba8:	8926                	mv	s2,s1
    80002baa:	b7e9                	j	80002b74 <iget+0x3c>
  if(empty == 0)
    80002bac:	02090c63          	beqz	s2,80002be4 <iget+0xac>
  ip->dev = dev;
    80002bb0:	01392023          	sw	s3,0(s2)
  ip->inum = inum;
    80002bb4:	01492223          	sw	s4,4(s2)
  ip->ref = 1;
    80002bb8:	4785                	li	a5,1
    80002bba:	00f92423          	sw	a5,8(s2)
  ip->valid = 0;
    80002bbe:	04092023          	sw	zero,64(s2)
  release(&itable.lock);
    80002bc2:	00034517          	auipc	a0,0x34
    80002bc6:	62e50513          	add	a0,a0,1582 # 800371f0 <itable>
    80002bca:	00004097          	auipc	ra,0x4
    80002bce:	8e8080e7          	jalr	-1816(ra) # 800064b2 <release>
}
    80002bd2:	854a                	mv	a0,s2
    80002bd4:	70a2                	ld	ra,40(sp)
    80002bd6:	7402                	ld	s0,32(sp)
    80002bd8:	64e2                	ld	s1,24(sp)
    80002bda:	6942                	ld	s2,16(sp)
    80002bdc:	69a2                	ld	s3,8(sp)
    80002bde:	6a02                	ld	s4,0(sp)
    80002be0:	6145                	add	sp,sp,48
    80002be2:	8082                	ret
    panic("iget: no inodes");
    80002be4:	00006517          	auipc	a0,0x6
    80002be8:	a4c50513          	add	a0,a0,-1460 # 80008630 <syscalls+0x140>
    80002bec:	00003097          	auipc	ra,0x3
    80002bf0:	2da080e7          	jalr	730(ra) # 80005ec6 <panic>

0000000080002bf4 <fsinit>:
fsinit(int dev) {
    80002bf4:	7179                	add	sp,sp,-48
    80002bf6:	f406                	sd	ra,40(sp)
    80002bf8:	f022                	sd	s0,32(sp)
    80002bfa:	ec26                	sd	s1,24(sp)
